(lp0
(lp1
cnumpy.core.multiarray
_reconstruct
p2
(cnumpy
ndarray
p3
(I0
tp4
S'b'
p5
tp6
Rp7
(I1
(I1
tp8
cnumpy
dtype
p9
(S'f8'
p10
I0
I1
tp11
Rp12
(I3
S'<'
p13
NNNI-1
I-1
I0
tp14
bI00
S'\xfc\xa9\xf1\xd2MbP?'
p15
tp16
bag2
(g3
(I0
tp17
g5
tp18
Rp19
(I1
(I1
tp20
g12
I00
S'\xa2\xf5\x9fn\xdc\xe6*@'
p21
tp22
bag2
(g3
(I0
tp23
g5
tp24
Rp25
(I1
(I1
tp26
g12
I00
S'|\x00\x08\xfev\xe0+@'
p27
tp28
bag2
(g3
(I0
tp29
g5
tp30
Rp31
(I1
(I1
tp32
g12
I00
S'\xec\xdf(\xe4\xf9\x9b-@'
p33
tp34
bag2
(g3
(I0
tp35
g5
tp36
Rp37
(I1
(I1
tp38
g12
I00
S'\xf1\xd9\x8d6\x03t.@'
p39
tp40
bag2
(g3
(I0
tp41
g5
tp42
Rp43
(I1
(I1
tp44
g12
I00
S'\xbcv\xb5\xd8i>/@'
p45
tp46
bag2
(g3
(I0
tp47
g5
tp48
Rp49
(I1
(I1
tp50
g12
I00
S'J\xaav\xbck\xff/@'
p51
tp52
bag2
(g3
(I0
tp53
g5
tp54
Rp55
(I1
(I1
tp56
g12
I00
S'\xa3\xd9\xb7\xad\x9cY0@'
p57
tp58
bag2
(g3
(I0
tp59
g5
tp60
Rp61
(I1
(I1
tp62
g12
I00
S'D\x17\x17<\x92\xb00@'
p63
tp64
bag2
(g3
(I0
tp65
g5
tp66
Rp67
(I1
(I1
tp68
g12
I00
S'\x02\xdc\x9b\x1d7\x011@'
p69
tp70
bag2
(g3
(I0
tp71
g5
tp72
Rp73
(I1
(I1
tp74
g12
I00
S'\x12\xf9ajZT1@'
p75
tp76
bag2
(g3
(I0
tp77
g5
tp78
Rp79
(I1
(I1
tp80
g12
I00
S'G\xf9\x01\xcee\xa31@'
p81
tp82
bag2
(g3
(I0
tp83
g5
tp84
Rp85
(I1
(I1
tp86
g12
I00
S'\xcaB\xe1\xaf\xcf\xeb1@'
p87
tp88
bag2
(g3
(I0
tp89
g5
tp90
Rp91
(I1
(I1
tp92
g12
I00
S'\xcb\x19\xd7\t\xe5\x993@'
p93
tp94
bag2
(g3
(I0
tp95
g5
tp96
Rp97
(I1
(I1
tp98
g12
I00
S'G-\xd1\xd7\xaeu2@'
p99
tp100
bag2
(g3
(I0
tp101
g5
tp102
Rp103
(I1
(I1
tp104
g12
I00
S'\x9b\x10&\x18\xdf\xb72@'
p105
tp106
bag2
(g3
(I0
tp107
g5
tp108
Rp109
(I1
(I1
tp110
g12
I00
S'B\xb6F\x8cD\xfe2@'
p111
tp112
bag2
(g3
(I0
tp113
g5
tp114
Rp115
(I1
(I1
tp116
g12
I00
S'\x83\xd2*\xe1v73@'
p117
tp118
bag2
(g3
(I0
tp119
g5
tp120
Rp121
(I1
(I1
tp122
g12
I00
S'\xeb!\x84\x18ko3@'
p123
tp124
bag2
(g3
(I0
tp125
g5
tp126
Rp127
(I1
(I1
tp128
g12
I00
S'\xba\x8e\xcf\xaeS\xa93@'
p129
tp130
baa(lp131
g2
(g3
(I0
tp132
g5
tp133
Rp134
(I1
(I1
tp135
g12
I00
S"\xe2l1n4#'@"
p136
tp137
bag2
(g3
(I0
tp138
g5
tp139
Rp140
(I1
(I1
tp141
g12
I00
S'^\x07\xc5n\x9b\xf9&@'
p142
tp143
bag2
(g3
(I0
tp144
g5
tp145
Rp146
(I1
(I1
tp147
g12
I00
S'\xff\xbf\xe2b}\xc6)@'
p148
tp149
bag2
(g3
(I0
tp150
g5
tp151
Rp152
(I1
(I1
tp153
g12
I00
S'~|5\x06\xed\x15+@'
p154
tp155
bag2
(g3
(I0
tp156
g5
tp157
Rp158
(I1
(I1
tp159
g12
I00
S'\t\x15-t?\x1f,@'
p160
tp161
bag2
(g3
(I0
tp162
g5
tp163
Rp164
(I1
(I1
tp165
g12
I00
S'p0\xb4\xc5\xed\x08-@'
p166
tp167
bag2
(g3
(I0
tp168
g5
tp169
Rp170
(I1
(I1
tp171
g12
I00
S'\x99\x1c\xa1\xc5\xb4\xdc-@'
p172
tp173
bag2
(g3
(I0
tp174
g5
tp175
Rp176
(I1
(I1
tp177
g12
I00
S'/\xa2crh\xa5.@'
p178
tp179
bag2
(g3
(I0
tp180
g5
tp181
Rp182
(I1
(I1
tp183
g12
I00
S'\xb29\r\xa4\x19\\/@'
p184
tp185
bag2
(g3
(I0
tp186
g5
tp187
Rp188
(I1
(I1
tp189
g12
I00
S'\xb1\xa6g>\x1b\t0@'
p190
tp191
bag2
(g3
(I0
tp192
g5
tp193
Rp194
(I1
(I1
tp195
g12
I00
S'\xe2\xc0\xfc=U^0@'
p196
tp197
bag2
(g3
(I0
tp198
g5
tp199
Rp200
(I1
(I1
tp201
g12
I00
S'\x0e\xc1\xd7\xb2\x1d\xb00@'
p202
tp203
bag2
(g3
(I0
tp204
g5
tp205
Rp206
(I1
(I1
tp207
g12
I00
S'\x13M;MH\x021@'
p208
tp209
bag2
(g3
(I0
tp210
g5
tp211
Rp212
(I1
(I1
tp213
g12
I00
S'\x9e\x87\xcd\x18\x96K1@'
p214
tp215
bag2
(g3
(I0
tp216
g5
tp217
Rp218
(I1
(I1
tp219
g12
I00
S'\x1e\xebV\x8a%\x951@'
p220
tp221
bag2
(g3
(I0
tp222
g5
tp223
Rp224
(I1
(I1
tp225
g12
I00
S'o\xcb\x01\xf4\xfa\xdd1@'
p226
tp227
bag2
(g3
(I0
tp228
g5
tp229
Rp230
(I1
(I1
tp231
g12
I00
S'\x15\xddd\x1d!"2@'
p232
tp233
bag2
(g3
(I0
tp234
g5
tp235
Rp236
(I1
(I1
tp237
g12
I00
S'\xbd/\x14\xfb\x1cl2@'
p238
tp239
bag2
(g3
(I0
tp240
g5
tp241
Rp242
(I1
(I1
tp243
g12
I00
S'\x8fqD\xa3\xf9\xa62@'
p244
tp245
bag2
(g3
(I0
tp246
g5
tp247
Rp248
(I1
(I1
tp249
g12
I00
S'\xa3Z\xc6w\x96\xe72@'
p250
tp251
baa(lp252
g2
(g3
(I0
tp253
g5
tp254
Rp255
(I1
(I1
tp256
g12
I00
S'{\xf6\xcak`*!@'
p257
tp258
bag2
(g3
(I0
tp259
g5
tp260
Rp261
(I1
(I1
tp262
g12
I00
S'j\x8b\x95\xd2J\x97!@'
p263
tp264
bag2
(g3
(I0
tp265
g5
tp266
Rp267
(I1
(I1
tp268
g12
I00
S'\xd3|\xbd\xe6\xf3\x7f(@'
p269
tp270
bag2
(g3
(I0
tp271
g5
tp272
Rp273
(I1
(I1
tp274
g12
I00
S'\xbd\xf9\xa8o\x97z(@'
p275
tp276
bag2
(g3
(I0
tp277
g5
tp278
Rp279
(I1
(I1
tp280
g12
I00
S'\x9f\xccVAv\xb9"@'
p281
tp282
bag2
(g3
(I0
tp283
g5
tp284
Rp285
(I1
(I1
tp286
g12
I00
S'\x7fv\xba\x925\x0f#@'
p287
tp288
bag2
(g3
(I0
tp289
g5
tp290
Rp291
(I1
(I1
tp292
g12
I00
S'7\xc9qZ\x04`#@'
p293
tp294
bag2
(g3
(I0
tp295
g5
tp296
Rp297
(I1
(I1
tp298
g12
I00
S'+\x1f\x02\xea\xa6\xd5,@'
p299
tp300
bag2
(g3
(I0
tp301
g5
tp302
Rp303
(I1
(I1
tp304
g12
I00
S'y7B\xb4\x96\xf3#@'
p305
tp306
bag2
(g3
(I0
tp307
g5
tp308
Rp309
(I1
(I1
tp310
g12
I00
S'\xd1z \xa1\x9c\xa9.@'
p311
tp312
bag2
(g3
(I0
tp313
g5
tp314
Rp315
(I1
(I1
tp316
g12
I00
S'!#w\xbd\xdcv$@'
p317
tp318
bag2
(g3
(I0
tp319
g5
tp320
Rp321
(I1
(I1
tp322
g12
I00
S'\xf5"\xf1\xe0\xd4\x1b0@'
p323
tp324
bag2
(g3
(I0
tp325
g5
tp326
Rp327
(I1
(I1
tp328
g12
I00
S'k\x87\xf4G\x81w0@'
p329
tp330
bag2
(g3
(I0
tp331
g5
tp332
Rp333
(I1
(I1
tp334
g12
I00
S'\xa3\xcd;\xd7\xef\xd00@'
p335
tp336
bag2
(g3
(I0
tp337
g5
tp338
Rp339
(I1
(I1
tp340
g12
I00
S'\xa7\xec\xe4\xe6\xe7$1@'
p341
tp342
bag2
(g3
(I0
tp343
g5
tp344
Rp345
(I1
(I1
tp346
g12
I00
S'\x95\xc2\xd7\xd3\x0e\x861@'
p347
tp348
bag2
(g3
(I0
tp349
g5
tp350
Rp351
(I1
(I1
tp352
g12
I00
S'0\x18\xf1\xd2_\x9e%@'
p353
tp354
bag2
(g3
(I0
tp355
g5
tp356
Rp357
(I1
(I1
tp358
g12
I00
S'HD\xdbX\xd4\x1b2@'
p359
tp360
bag2
(g3
(I0
tp361
g5
tp362
Rp363
(I1
(I1
tp364
g12
I00
S'\xd1\r\xd1\x06\xf2g2@'
p365
tp366
bag2
(g3
(I0
tp367
g5
tp368
Rp369
(I1
(I1
tp370
g12
I00
S'\xdajBC<\xb72@'
p371
tp372
baa(lp373
g2
(g3
(I0
tp374
g5
tp375
Rp376
(I1
(I1
tp377
g12
I00
S'5\x04\xf7P+t"@'
p378
tp379
bag2
(g3
(I0
tp380
g5
tp381
Rp382
(I1
(I1
tp383
g12
I00
S'\x8c\x1c\xe2)\xf1\xdc)@'
p384
tp385
bag2
(g3
(I0
tp386
g5
tp387
Rp388
(I1
(I1
tp389
g12
I00
S'fQN\xab\xe1\xe9)@'
p390
tp391
bag2
(g3
(I0
tp392
g5
tp393
Rp394
(I1
(I1
tp395
g12
I00
S'gA\x8a\x05T\xf8)@'
p396
tp397
bag2
(g3
(I0
tp398
g5
tp399
Rp400
(I1
(I1
tp401
g12
I00
S'\x8c"\xae{\xf3\x07*@'
p402
tp403
bag2
(g3
(I0
tp404
g5
tp405
Rp406
(I1
(I1
tp407
g12
I00
S'?\x9b\xb14R\x19*@'
p408
tp409
bag2
(g3
(I0
tp410
g5
tp411
Rp412
(I1
(I1
tp413
g12
I00
S'\xabk\xddj\xde,*@'
p414
tp415
bag2
(g3
(I0
tp416
g5
tp417
Rp418
(I1
(I1
tp419
g12
I00
S'O\x9bB\xa6\nB*@'
p420
tp421
bag2
(g3
(I0
tp422
g5
tp423
Rp424
(I1
(I1
tp425
g12
I00
S'\x94\xea6\x9a\xa7Y*@'
p426
tp427
bag2
(g3
(I0
tp428
g5
tp429
Rp430
(I1
(I1
tp431
g12
I00
S'E\x1f\xf1\x1d\x97\x82#@'
p432
tp433
bag2
(g3
(I0
tp434
g5
tp435
Rp436
(I1
(I1
tp437
g12
I00
S'>?\xe2\xb8\x01\xed#@'
p438
tp439
bag2
(g3
(I0
tp440
g5
tp441
Rp442
(I1
(I1
tp443
g12
I00
S'3\x9e\xb6\t\x88X$@'
p444
tp445
bag2
(g3
(I0
tp446
g5
tp447
Rp448
(I1
(I1
tp449
g12
I00
S'\xf2R\xbd9\x06\xc5$@'
p450
tp451
bag2
(g3
(I0
tp452
g5
tp453
Rp454
(I1
(I1
tp455
g12
I00
S'\x00[uv\x932%@'
p456
tp457
bag2
(g3
(I0
tp458
g5
tp459
Rp460
(I1
(I1
tp461
g12
I00
S'\x13\x15\xf1\xab<\xa1%@'
p462
tp463
bag2
(g3
(I0
tp464
g5
tp465
Rp466
(I1
(I1
tp467
g12
I00
S'n3X\x90\r\xb80@'
p468
tp469
bag2
(g3
(I0
tp470
g5
tp471
Rp472
(I1
(I1
tp473
g12
I00
S'\xd5\xd1\x1c-q\x7f&@'
p474
tp475
bag2
(g3
(I0
tp476
g5
tp477
Rp478
(I1
(I1
tp479
g12
I00
S'\xe1m\x08p\x13v1@'
p480
tp481
bag2
(g3
(I0
tp482
g5
tp483
Rp484
(I1
(I1
tp485
g12
I00
S"\x14\x1fW\xc4\nB'@"
p486
tp487
bag2
(g3
(I0
tp488
g5
tp489
Rp490
(I1
(I1
tp491
g12
I00
S'_\xa3}\xce\xcc82@'
p492
tp493
baa(lp494
g2
(g3
(I0
tp495
g5
tp496
Rp497
(I1
(I1
tp498
g12
I00
S'\xbe\x0c\xf7\n\xb3\xf4*@'
p499
tp500
bag2
(g3
(I0
tp501
g5
tp502
Rp503
(I1
(I1
tp504
g12
I00
S'\xed\x95\xf3t\xf2\x10+@'
p505
tp506
bag2
(g3
(I0
tp507
g5
tp508
Rp509
(I1
(I1
tp510
g12
I00
S'\x84?\xce\xa7w.+@'
p511
tp512
bag2
(g3
(I0
tp513
g5
tp514
Rp515
(I1
(I1
tp516
g12
I00
S'{\x7f\xc2\xb4@M+@'
p517
tp518
bag2
(g3
(I0
tp519
g5
tp520
Rp521
(I1
(I1
tp522
g12
I00
S'2\xea\xc0oLm+@'
p523
tp524
bag2
(g3
(I0
tp525
g5
tp526
Rp527
(I1
(I1
tp528
g12
I00
S'):\n^\x8f\x8e+@'
p529
tp530
bag2
(g3
(I0
tp531
g5
tp532
Rp533
(I1
(I1
tp534
g12
I00
S'h\x1b\xd4\x9a\xf1\xb0+@'
p535
tp536
bag2
(g3
(I0
tp537
g5
tp538
Rp539
(I1
(I1
tp540
g12
I00
S'9\x05\x85\xebY\xd4+@'
p541
tp542
bag2
(g3
(I0
tp543
g5
tp544
Rp545
(I1
(I1
tp546
g12
I00
S'eJ\xd9\xc6\xd4\xf8+@'
p547
tp548
bag2
(g3
(I0
tp549
g5
tp550
Rp551
(I1
(I1
tp552
g12
I00
S'+\xd6[\xb3r\x1e,@'
p553
tp554
bag2
(g3
(I0
tp555
g5
tp556
Rp557
(I1
(I1
tp558
g12
I00
S'\xa7Ra\x16:E,@'
p559
tp560
bag2
(g3
(I0
tp561
g5
tp562
Rp563
(I1
(I1
tp564
g12
I00
S'\xd0\x01\x86\x0e\x10m,@'
p565
tp566
bag2
(g3
(I0
tp567
g5
tp568
Rp569
(I1
(I1
tp570
g12
I00
S'I\xf8Nz\xd9\x95,@'
p571
tp572
bag2
(g3
(I0
tp573
g5
tp574
Rp575
(I1
(I1
tp576
g12
I00
S'.\xf7\xa9\xd4\x99\xbf,@'
p577
tp578
bag2
(g3
(I0
tp579
g5
tp580
Rp581
(I1
(I1
tp582
g12
I00
S'\xcb\xd1\x1de[\xea,@'
p583
tp584
bag2
(g3
(I0
tp585
g5
tp586
Rp587
(I1
(I1
tp588
g12
I00
S'\x0by\x94\x98\n\x16-@'
p589
tp590
bag2
(g3
(I0
tp591
g5
tp592
Rp593
(I1
(I1
tp594
g12
I00
S'\x04\xa1\x7f\x92\x91B-@'
p595
tp596
bag2
(g3
(I0
tp597
g5
tp598
Rp599
(I1
(I1
tp600
g12
I00
S'u\xc38\xde\xdeo-@'
p601
tp602
bag2
(g3
(I0
tp603
g5
tp604
Rp605
(I1
(I1
tp606
g12
I00
S'\xb3,\xf1_\xe4\x9d-@'
p607
tp608
bag2
(g3
(I0
tp609
g5
tp610
Rp611
(I1
(I1
tp612
g12
I00
S'3\xf6\xbb\xc82\x810@'
p613
tp614
baa(lp615
g2
(g3
(I0
tp616
g5
tp617
Rp618
(I1
(I1
tp619
g12
I00
S",\x1e\x11'\x00\xf9+@"
p620
tp621
bag2
(g3
(I0
tp622
g5
tp623
Rp624
(I1
(I1
tp625
g12
I00
S'\xfb\x08\xa2\xe1`%,@'
p626
tp627
bag2
(g3
(I0
tp628
g5
tp629
Rp630
(I1
(I1
tp631
g12
I00
S'38\xa7\xbb\xb8R,@'
p632
tp633
bag2
(g3
(I0
tp634
g5
tp635
Rp636
(I1
(I1
tp637
g12
I00
S'5\x97\r\x96\xfd\x80,@'
p638
tp639
bag2
(g3
(I0
tp640
g5
tp641
Rp642
(I1
(I1
tp643
g12
I00
S'F\x9a\xc4\xa6#\xb0,@'
p644
tp645
bag2
(g3
(I0
tp646
g5
tp647
Rp648
(I1
(I1
tp649
g12
I00
S'\xeb\xbdcw\x1f\xe0,@'
p650
tp651
bag2
(g3
(I0
tp652
g5
tp653
Rp654
(I1
(I1
tp655
g12
I00
S'\\U>\x8a\xf0\x10-@'
p656
tp657
bag2
(g3
(I0
tp658
g5
tp659
Rp660
(I1
(I1
tp661
g12
I00
S'\x7f\xc6\xfa\xadxB-@'
p662
tp663
bag2
(g3
(I0
tp664
g5
tp665
Rp666
(I1
(I1
tp667
g12
I00
S'XD\xedA\xaft-@'
p668
tp669
bag2
(g3
(I0
tp670
g5
tp671
Rp672
(I1
(I1
tp673
g12
I00
S'\x8d\xea\xc9\xbf{\xa7-@'
p674
tp675
bag2
(g3
(I0
tp676
g5
tp677
Rp678
(I1
(I1
tp679
g12
I00
S'\xc1\xd3\xbc\xa3\xc7\xda-@'
p680
tp681
bag2
(g3
(I0
tp682
g5
tp683
Rp684
(I1
(I1
tp685
g12
I00
S' \x9aN_}\x0e.@'
p686
tp687
bag2
(g3
(I0
tp688
g5
tp689
Rp690
(I1
(I1
tp691
g12
I00
S'\x93)B\x8c\x8cB.@'
p692
tp693
bag2
(g3
(I0
tp694
g5
tp695
Rp696
(I1
(I1
tp697
g12
I00
S'\xe2\xa9\xeb\xb8\xe5v.@'
p698
tp699
bag2
(g3
(I0
tp700
g5
tp701
Rp702
(I1
(I1
tp703
g12
I00
S'\x887s\xcb{\xab.@'
p704
tp705
bag2
(g3
(I0
tp706
g5
tp707
Rp708
(I1
(I1
tp709
g12
I00
S'\x18h\x9c\x7fS\xe0.@'
p710
tp711
bag2
(g3
(I0
tp712
g5
tp713
Rp714
(I1
(I1
tp715
g12
I00
S'\xf5\xb4\xb6\xe5P\x15/@'
p716
tp717
bag2
(g3
(I0
tp718
g5
tp719
Rp720
(I1
(I1
tp721
g12
I00
S'Qw\x11\x06rJ/@'
p722
tp723
bag2
(g3
(I0
tp724
g5
tp725
Rp726
(I1
(I1
tp727
g12
I00
S' <\x9b\x00\xbb\x7f/@'
p728
tp729
bag2
(g3
(I0
tp730
g5
tp731
Rp732
(I1
(I1
tp733
g12
I00
S'p\x96\x818O\xb5/@'
p734
tp735
baa(lp736
g2
(g3
(I0
tp737
g5
tp738
Rp739
(I1
(I1
tp740
g12
I00
S'\x02\xd3\xd3\x81~\xe1,@'
p741
tp742
bag2
(g3
(I0
tp743
g5
tp744
Rp745
(I1
(I1
tp746
g12
I00
S'2,\xcf\xad\x9a\x1c-@'
p747
tp748
bag2
(g3
(I0
tp749
g5
tp750
Rp751
(I1
(I1
tp752
g12
I00
S'\xb8\xe7\x1d\x96\x89X-@'
p753
tp754
bag2
(g3
(I0
tp755
g5
tp756
Rp757
(I1
(I1
tp758
g12
I00
S'\xe7\xfc\xba\xff@\x95-@'
p759
tp760
bag2
(g3
(I0
tp761
g5
tp762
Rp763
(I1
(I1
tp764
g12
I00
S'\x00\xecJF\xaa\xd2-@'
p765
tp766
bag2
(g3
(I0
tp767
g5
tp768
Rp769
(I1
(I1
tp770
g12
I00
S'F\xbb\xc6\xb0\xa0\x10.@'
p771
tp772
bag2
(g3
(I0
tp773
g5
tp774
Rp775
(I1
(I1
tp776
g12
I00
S'\x8a\x94\xbb3\x17O.@'
p777
tp778
bag2
(g3
(I0
tp779
g5
tp780
Rp781
(I1
(I1
tp782
g12
I00
S'`\x8eK_\xef\x8d.@'
p783
tp784
bag2
(g3
(I0
tp785
g5
tp786
Rp787
(I1
(I1
tp788
g12
I00
S'\x18M\xbc\xd2\x15\xcd.@'
p789
tp790
bag2
(g3
(I0
tp791
g5
tp792
Rp793
(I1
(I1
tp794
g12
I00
S'\xa3\x12\x9cij\x0c/@'
p795
tp796
bag2
(g3
(I0
tp797
g5
tp798
Rp799
(I1
(I1
tp800
g12
I00
S'\xcb\x11\x90\xa9\xdeK/@'
p801
tp802
bag2
(g3
(I0
tp803
g5
tp804
Rp805
(I1
(I1
tp806
g12
I00
S'_\xb6\xe5\xeb\\\x8b/@'
p807
tp808
bag2
(g3
(I0
tp809
g5
tp810
Rp811
(I1
(I1
tp812
g12
I00
S'b\xcaD\xf2\xd5\xca/@'
p813
tp814
bag2
(g3
(I0
tp815
g5
tp816
Rp817
(I1
(I1
tp818
g12
I00
S'\xb3\xd37=\x1e\x050@'
p819
tp820
bag2
(g3
(I0
tp821
g5
tp822
Rp823
(I1
(I1
tp824
g12
I00
S'V\xa8\xc3\x8b\xc2$0@'
p825
tp826
bag2
(g3
(I0
tp827
g5
tp828
Rp829
(I1
(I1
tp830
g12
I00
S'\x18\xe0s\xb5VD0@'
p831
tp832
bag2
(g3
(I0
tp833
g5
tp834
Rp835
(I1
(I1
tp836
g12
I00
S'\x1b\xad[c\xdfc0@'
p837
tp838
bag2
(g3
(I0
tp839
g5
tp840
Rp841
(I1
(I1
tp842
g12
I00
S'\x12S\x03Rq\x830@'
p843
tp844
bag2
(g3
(I0
tp845
g5
tp846
Rp847
(I1
(I1
tp848
g12
I00
S'Sw\xbe\n*\xa30@'
p849
tp850
bag2
(g3
(I0
tp851
g5
tp852
Rp853
(I1
(I1
tp854
g12
I00
S'z`\xc3|\x1c\xc30@'
p855
tp856
baa(lp857
g2
(g3
(I0
tp858
g5
tp859
Rp860
(I1
(I1
tp861
g12
I00
S'\xeb\x92\x1a\x15P\xb1-@'
p862
tp863
bag2
(g3
(I0
tp864
g5
tp865
Rp866
(I1
(I1
tp867
g12
I00
S'\xbf\x80Z\xd2\xa4\xf9-@'
p868
tp869
bag2
(g3
(I0
tp870
g5
tp871
Rp872
(I1
(I1
tp873
g12
I00
S'\xd8\x1b+&\xc0B.@'
p874
tp875
bag2
(g3
(I0
tp876
g5
tp877
Rp878
(I1
(I1
tp879
g12
I00
S'\xf4\xdaF\xdbu\x8c.@'
p880
tp881
bag2
(g3
(I0
tp882
g5
tp883
Rp884
(I1
(I1
tp885
g12
I00
S'\x10\xf7\x15\xd9\x9c\xd6.@'
p886
tp887
bag2
(g3
(I0
tp888
g5
tp889
Rp890
(I1
(I1
tp891
g12
I00
S'\x03]{7\x14!/@'
p892
tp893
bag2
(g3
(I0
tp894
g5
tp895
Rp896
(I1
(I1
tp897
g12
I00
S'\xa2&V\x9c\xbek/@'
p898
tp899
bag2
(g3
(I0
tp900
g5
tp901
Rp902
(I1
(I1
tp903
g12
I00
S'm4@kp\xb6/@'
p904
tp905
bag2
(g3
(I0
tp906
g5
tp907
Rp908
(I1
(I1
tp909
g12
I00
S'\xbbO\n\x1b\x8d\x000@'
p910
tp911
bag2
(g3
(I0
tp912
g5
tp913
Rp914
(I1
(I1
tp915
g12
I00
S'B{H\xad\xcf%0@'
p916
tp917
bag2
(g3
(I0
tp918
g5
tp919
Rp920
(I1
(I1
tp921
g12
I00
S"*\xca\xe1'\xf8J0@"
p922
tp923
bag2
(g3
(I0
tp924
g5
tp925
Rp926
(I1
(I1
tp927
g12
I00
S'8C\xbf>\x01p0@'
p928
tp929
bag2
(g3
(I0
tp930
g5
tp931
Rp932
(I1
(I1
tp933
g12
I00
S'\x14\x92\xb3\xde\xeb\x940@'
p934
tp935
bag2
(g3
(I0
tp936
g5
tp937
Rp938
(I1
(I1
tp939
g12
I00
S'\xe8j\xe8\xe7\xc4\xb90@'
p940
tp941
bag2
(g3
(I0
tp942
g5
tp943
Rp944
(I1
(I1
tp945
g12
I00
S'/qu0\x97\xde0@'
p946
tp947
bag2
(g3
(I0
tp948
g5
tp949
Rp950
(I1
(I1
tp951
g12
I00
S'\x17\xbf\x9cX\x85\x031@'
p952
tp953
bag2
(g3
(I0
tp954
g5
tp955
Rp956
(I1
(I1
tp957
g12
I00
S'V\xc28\xc5\xbf(1@'
p958
tp959
bag2
(g3
(I0
tp960
g5
tp961
Rp962
(I1
(I1
tp963
g12
I00
S'\x94\xc2\xe9\xd4\x1cN1@'
p964
tp965
bag2
(g3
(I0
tp966
g5
tp967
Rp968
(I1
(I1
tp969
g12
I00
S'\x01\xe5C(\x93s1@'
p970
tp971
bag2
(g3
(I0
tp972
g5
tp973
Rp974
(I1
(I1
tp975
g12
I00
S'\x85\xb9\x88;\x15\x991@'
p976
tp977
baa(lp978
g2
(g3
(I0
tp979
g5
tp980
Rp981
(I1
(I1
tp982
g12
I00
S'\xd33\x04J\x0ek.@'
p983
tp984
bag2
(g3
(I0
tp985
g5
tp986
Rp987
(I1
(I1
tp988
g12
I00
S'I4\x90\xac\x11\xbf.@'
p989
tp990
bag2
(g3
(I0
tp991
g5
tp992
Rp993
(I1
(I1
tp994
g12
I00
S'* \x9a\xdb\xa6\x13/@'
p995
tp996
bag2
(g3
(I0
tp997
g5
tp998
Rp999
(I1
(I1
tp1000
g12
I00
S'l0Fs\x96h/@'
p1001
tp1002
bag2
(g3
(I0
tp1003
g5
tp1004
Rp1005
(I1
(I1
tp1006
g12
I00
S'Q\xdd~2\xb0\xbd/@'
p1007
tp1008
bag2
(g3
(I0
tp1009
g5
tp1010
Rp1011
(I1
(I1
tp1012
g12
I00
S'\xc0\xe4\xc5?e\t0@'
p1013
tp1014
bag2
(g3
(I0
tp1015
g5
tp1016
Rp1017
(I1
(I1
tp1018
g12
I00
S'\x03\xc6^\x9a\xe030@'
p1019
tp1020
bag2
(g3
(I0
tp1021
g5
tp1022
Rp1023
(I1
(I1
tp1024
g12
I00
S'6\x97\x8f\xc3<^0@'
p1025
tp1026
bag2
(g3
(I0
tp1027
g5
tp1028
Rp1029
(I1
(I1
tp1030
g12
I00
S'\xc87\x83\x9cp\x880@'
p1031
tp1032
bag2
(g3
(I0
tp1033
g5
tp1034
Rp1035
(I1
(I1
tp1036
g12
I00
S'Q_\xa38{\xb20@'
p1037
tp1038
bag2
(g3
(I0
tp1039
g5
tp1040
Rp1041
(I1
(I1
tp1042
g12
I00
S'\x80\x94:\xe3e\xdc0@'
p1043
tp1044
bag2
(g3
(I0
tp1045
g5
tp1046
Rp1047
(I1
(I1
tp1048
g12
I00
S'2\x00XVG\x061@'
p1049
tp1050
bag2
(g3
(I0
tp1051
g5
tp1052
Rp1053
(I1
(I1
tp1054
g12
I00
S'\xdc[\xd7;T01@'
p1055
tp1056
bag2
(g3
(I0
tp1057
g5
tp1058
Rp1059
(I1
(I1
tp1060
g12
I00
S'j\xd1d*\x97Z1@'
p1061
tp1062
bag2
(g3
(I0
tp1063
g5
tp1064
Rp1065
(I1
(I1
tp1066
g12
I00
S'\xbe\xea\x9f\xe0\x13\x851@'
p1067
tp1068
bag2
(g3
(I0
tp1069
g5
tp1070
Rp1071
(I1
(I1
tp1072
g12
I00
S'\xff\xf2\x00U\xba\xaf1@'
p1073
tp1074
bag2
(g3
(I0
tp1075
g5
tp1076
Rp1077
(I1
(I1
tp1078
g12
I00
S'\xc7\xa8\x80\x14s\xda1@'
p1079
tp1080
bag2
(g3
(I0
tp1081
g5
tp1082
Rp1083
(I1
(I1
tp1084
g12
I00
S'\xff}_\xf2H\x052@'
p1085
tp1086
bag2
(g3
(I0
tp1087
g5
tp1088
Rp1089
(I1
(I1
tp1090
g12
I00
S'?(\x95\xc6\x1702@'
p1091
tp1092
bag2
(g3
(I0
tp1093
g5
tp1094
Rp1095
(I1
(I1
tp1096
g12
I00
S'K~\xda\xfe\xdfZ2@'
p1097
tp1098
baa(lp1099
g2
(g3
(I0
tp1100
g5
tp1101
Rp1102
(I1
(I1
tp1103
g12
I00
S'\x18\x11\x14\x08X$$@'
p1104
tp1105
bag2
(g3
(I0
tp1106
g5
tp1107
Rp1108
(I1
(I1
tp1109
g12
I00
S'?\xdd\xfb\xb3\xc8n/@'
p1110
tp1111
bag2
(g3
(I0
tp1112
g5
tp1113
Rp1114
(I1
(I1
tp1115
g12
I00
S'\xa5w\xca#\x16\xcd/@'
p1116
tp1117
bag2
(g3
(I0
tp1118
g5
tp1119
Rp1120
(I1
(I1
tp1121
g12
I00
S'\x8a\x1a(j\xb6\x150@'
p1122
tp1123
bag2
(g3
(I0
tp1124
g5
tp1125
Rp1126
(I1
(I1
tp1127
g12
I00
S'\x88\x112\xd8\xd2D0@'
p1128
tp1129
bag2
(g3
(I0
tp1130
g5
tp1131
Rp1132
(I1
(I1
tp1133
g12
I00
S'\x00\x9d\x14}\xc2s0@'
p1134
tp1135
bag2
(g3
(I0
tp1136
g5
tp1137
Rp1138
(I1
(I1
tp1139
g12
I00
S'\n\xafq=\x84\xa20@'
p1140
tp1141
bag2
(g3
(I0
tp1142
g5
tp1143
Rp1144
(I1
(I1
tp1145
g12
I00
S'd\xd3g<\x16\xd10@'
p1146
tp1147
bag2
(g3
(I0
tp1148
g5
tp1149
Rp1150
(I1
(I1
tp1151
g12
I00
S'\x17\x04\x9f\xb6\x8b\xff0@'
p1152
tp1153
bag2
(g3
(I0
tp1154
g5
tp1155
Rp1156
(I1
(I1
tp1157
g12
I00
S'y\xf0gG\n.1@'
p1158
tp1159
bag2
(g3
(I0
tp1160
g5
tp1161
Rp1162
(I1
(I1
tp1163
g12
I00
S'\xcb2\x96J\xc2\\1@'
p1164
tp1165
bag2
(g3
(I0
tp1166
g5
tp1167
Rp1168
(I1
(I1
tp1169
g12
I00
S')\x1f\x0fk\xc5\x8b1@'
p1170
tp1171
bag2
(g3
(I0
tp1172
g5
tp1173
Rp1174
(I1
(I1
tp1175
g12
I00
S'b\x19{\xd5\x0b\xbb1@'
p1176
tp1177
bag2
(g3
(I0
tp1178
g5
tp1179
Rp1180
(I1
(I1
tp1181
g12
I00
S'\x80v\xb3\x1f\x85\xea1@'
p1182
tp1183
bag2
(g3
(I0
tp1184
g5
tp1185
Rp1186
(I1
(I1
tp1187
g12
I00
S'\x1b\x1f\x82\x9a\x17\x1a2@'
p1188
tp1189
bag2
(g3
(I0
tp1190
g5
tp1191
Rp1192
(I1
(I1
tp1193
g12
I00
S'\x00\xa5+\x11\xc7I2@'
p1194
tp1195
bag2
(g3
(I0
tp1196
g5
tp1197
Rp1198
(I1
(I1
tp1199
g12
I00
S'!j\x03o\x83y2@'
p1200
tp1201
bag2
(g3
(I0
tp1202
g5
tp1203
Rp1204
(I1
(I1
tp1205
g12
I00
S'K7\x97\x05B\xa92@'
p1206
tp1207
bag2
(g3
(I0
tp1208
g5
tp1209
Rp1210
(I1
(I1
tp1211
g12
I00
S'\xdf\xe9\x9f\x0f\xf5\xd82@'
p1212
tp1213
bag2
(g3
(I0
tp1214
g5
tp1215
Rp1216
(I1
(I1
tp1217
g12
I00
S'\x9dw\x94\xf4\xa8\x083@'
p1218
tp1219
baa(lp1220
g2
(g3
(I0
tp1221
g5
tp1222
Rp1223
(I1
(I1
tp1224
g12
I00
S'_g\xb7^.\xa4/@'
p1225
tp1226
bag2
(g3
(I0
tp1227
g5
tp1228
Rp1229
(I1
(I1
tp1230
g12
I00
S'8\x89\x14\xe0J\x050@'
p1231
tp1232
bag2
(g3
(I0
tp1233
g5
tp1234
Rp1235
(I1
(I1
tp1236
g12
I00
S't\xc9\x94\xa6}80@'
p1237
tp1238
bag2
(g3
(I0
tp1239
g5
tp1240
Rp1241
(I1
(I1
tp1242
g12
I00
S'\x9a\xd5\xf4\xe5\x8bk0@'
p1243
tp1244
bag2
(g3
(I0
tp1245
g5
tp1246
Rp1247
(I1
(I1
tp1248
g12
I00
S'R\xb2\xc4gd\x9e0@'
p1249
tp1250
bag2
(g3
(I0
tp1251
g5
tp1252
Rp1253
(I1
(I1
tp1254
g12
I00
S'\xd3Q^\xee\x03\xd10@'
p1255
tp1256
bag2
(g3
(I0
tp1257
g5
tp1258
Rp1259
(I1
(I1
tp1260
g12
I00
S'\x17\x8c\xccK|\x031@'
p1261
tp1262
bag2
(g3
(I0
tp1263
g5
tp1264
Rp1265
(I1
(I1
tp1266
g12
I00
S'\xd1\xca\x9a\xff\xfa51@'
p1267
tp1268
bag2
(g3
(I0
tp1269
g5
tp1270
Rp1271
(I1
(I1
tp1272
g12
I00
S'\xdb.\xaef\xb6h1@'
p1273
tp1274
bag2
(g3
(I0
tp1275
g5
tp1276
Rp1277
(I1
(I1
tp1278
g12
I00
S'\xc2\x806\x8a\xc7\x9b1@'
p1279
tp1280
bag2
(g3
(I0
tp1281
g5
tp1282
Rp1283
(I1
(I1
tp1284
g12
I00
S'\xab\xc9\xfd\r)\xcf1@'
p1285
tp1286
bag2
(g3
(I0
tp1287
g5
tp1288
Rp1289
(I1
(I1
tp1290
g12
I00
S'\xe3o\xd68\xcc\x022@'
p1291
tp1292
bag2
(g3
(I0
tp1293
g5
tp1294
Rp1295
(I1
(I1
tp1296
g12
I00
S'\x91f\x05d\xab62@'
p1297
tp1298
bag2
(g3
(I0
tp1299
g5
tp1300
Rp1301
(I1
(I1
tp1302
g12
I00
S'0\n,\xac\x9dj2@'
p1303
tp1304
bag2
(g3
(I0
tp1305
g5
tp1306
Rp1307
(I1
(I1
tp1308
g12
I00
S'9Y\xad}\xb2\x9e2@'
p1309
tp1310
bag2
(g3
(I0
tp1311
g5
tp1312
Rp1313
(I1
(I1
tp1314
g12
I00
S'2x)\xfd\xd5\xd22@'
p1315
tp1316
bag2
(g3
(I0
tp1317
g5
tp1318
Rp1319
(I1
(I1
tp1320
g12
I00
S'Fm\x9f\xed\xdd\x063@'
p1321
tp1322
bag2
(g3
(I0
tp1323
g5
tp1324
Rp1325
(I1
(I1
tp1326
g12
I00
S'[|\xe2\x87P;3@'
p1327
tp1328
bag2
(g3
(I0
tp1329
g5
tp1330
Rp1331
(I1
(I1
tp1332
g12
I00
S'W\x9d\x0b\xa4?o3@'
p1333
tp1334
bag2
(g3
(I0
tp1335
g5
tp1336
Rp1337
(I1
(I1
tp1338
g12
I00
S'\x14*\x93\xa6O\xa33@'
p1339
tp1340
baa(lp1341
g2
(g3
(I0
tp1342
g5
tp1343
Rp1344
(I1
(I1
tp1345
g12
I00
S'\xe9a^\xfd\x80\x130@'
p1346
tp1347
bag2
(g3
(I0
tp1348
g5
tp1349
Rp1350
(I1
(I1
tp1351
g12
I00
S'\xd4\xeaQ\xb76J0@'
p1352
tp1353
bag2
(g3
(I0
tp1354
g5
tp1355
Rp1356
(I1
(I1
tp1357
g12
I00
S'\xcb/a\x9e\xbf\x800@'
p1358
tp1359
bag2
(g3
(I0
tp1360
g5
tp1361
Rp1362
(I1
(I1
tp1363
g12
I00
S'\x17\xd9\xee\x85\x08\xb70@'
p1364
tp1365
bag2
(g3
(I0
tp1366
g5
tp1367
Rp1368
(I1
(I1
tp1369
g12
I00
S'\x10\xf6\x183\x16\xed0@'
p1370
tp1371
bag2
(g3
(I0
tp1372
g5
tp1373
Rp1374
(I1
(I1
tp1375
g12
I00
S'\xab\xf6\xc5U\x0c#1@'
p1376
tp1377
bag2
(g3
(I0
tp1378
g5
tp1379
Rp1380
(I1
(I1
tp1381
g12
I00
S"\xf0\x82\xa4\x8e'Y1@"
p1382
tp1383
bag2
(g3
(I0
tp1384
g5
tp1385
Rp1386
(I1
(I1
tp1387
g12
I00
S'lE\xc9\xce\x9b\x8f1@'
p1388
tp1389
bag2
(g3
(I0
tp1390
g5
tp1391
Rp1392
(I1
(I1
tp1393
g12
I00
S"\xe84'\x92o\xc61@"
p1394
tp1395
bag2
(g3
(I0
tp1396
g5
tp1397
Rp1398
(I1
(I1
tp1399
g12
I00
S'\x05\x1d\xe0N\x97\xfd1@'
p1400
tp1401
bag2
(g3
(I0
tp1402
g5
tp1403
Rp1404
(I1
(I1
tp1405
g12
I00
S'\x05\xf41&\x0652@'
p1406
tp1407
bag2
(g3
(I0
tp1408
g5
tp1409
Rp1410
(I1
(I1
tp1411
g12
I00
S's]\xf24\xacl2@'
p1412
tp1413
bag2
(g3
(I0
tp1414
g5
tp1415
Rp1416
(I1
(I1
tp1417
g12
I00
S'\x01/m\r}\xa42@'
p1418
tp1419
bag2
(g3
(I0
tp1420
g5
tp1421
Rp1422
(I1
(I1
tp1423
g12
I00
S'\xf1\xf0\xbc.g\xdc2@'
p1424
tp1425
bag2
(g3
(I0
tp1426
g5
tp1427
Rp1428
(I1
(I1
tp1429
g12
I00
S'\x14\xc6\xb7"g\x143@'
p1430
tp1431
bag2
(g3
(I0
tp1432
g5
tp1433
Rp1434
(I1
(I1
tp1435
g12
I00
S'\xcb*R\x9feL3@'
p1436
tp1437
bag2
(g3
(I0
tp1438
g5
tp1439
Rp1440
(I1
(I1
tp1441
g12
I00
S'\xaf-\x98\xf4T\x843@'
p1442
tp1443
bag2
(g3
(I0
tp1444
g5
tp1445
Rp1446
(I1
(I1
tp1447
g12
I00
S'A@\x13\x18L\xbc3@'
p1448
tp1449
bag2
(g3
(I0
tp1450
g5
tp1451
Rp1452
(I1
(I1
tp1453
g12
I00
S'\x07\x90J\x07J\xf43@'
p1454
tp1455
bag2
(g3
(I0
tp1456
g5
tp1457
Rp1458
(I1
(I1
tp1459
g12
I00
S'\xfe\xea`\x1e(,4@'
p1460
tp1461
baa(lp1462
g2
(g3
(I0
tp1463
g5
tp1464
Rp1465
(I1
(I1
tp1466
g12
I00
S'\xee\xf5\xf2\x16\x80M0@'
p1467
tp1468
bag2
(g3
(I0
tp1469
g5
tp1470
Rp1471
(I1
(I1
tp1472
g12
I00
S'\xec*\xd5\xc2 \x870@'
p1473
tp1474
bag2
(g3
(I0
tp1475
g5
tp1476
Rp1477
(I1
(I1
tp1478
g12
I00
S'{\xcb\xf7\\z\xc00@'
p1479
tp1480
bag2
(g3
(I0
tp1481
g5
tp1482
Rp1483
(I1
(I1
tp1484
g12
I00
S':\x8e\xf4\xf6\x94\xf90@'
p1485
tp1486
bag2
(g3
(I0
tp1487
g5
tp1488
Rp1489
(I1
(I1
tp1490
g12
I00
S'\xcc\x9a \xbb\xa021@'
p1491
tp1492
bag2
(g3
(I0
tp1493
g5
tp1494
Rp1495
(I1
(I1
tp1496
g12
I00
S'\xf9mM\x08\xe3k1@'
p1497
tp1498
bag2
(g3
(I0
tp1499
g5
tp1500
Rp1501
(I1
(I1
tp1502
g12
I00
S'*\xab\x0cJ\x8b\xa51@'
p1503
tp1504
bag2
(g3
(I0
tp1505
g5
tp1506
Rp1507
(I1
(I1
tp1508
g12
I00
S'e\x03\x97\x05\x99\xdf1@'
p1509
tp1510
bag2
(g3
(I0
tp1511
g5
tp1512
Rp1513
(I1
(I1
tp1514
g12
I00
S've\x9e\xce\x04\x1a2@'
p1515
tp1516
bag2
(g3
(I0
tp1517
g5
tp1518
Rp1519
(I1
(I1
tp1520
g12
I00
S'|\xc3\xe8\x08\xbbT2@'
p1521
tp1522
bag2
(g3
(I0
tp1523
g5
tp1524
Rp1525
(I1
(I1
tp1526
g12
I00
S'(?l\\\xaf\x8f2@'
p1527
tp1528
bag2
(g3
(I0
tp1529
g5
tp1530
Rp1531
(I1
(I1
tp1532
g12
I00
S'\xba\xd1\xf2S\xca\xca2@'
p1533
tp1534
bag2
(g3
(I0
tp1535
g5
tp1536
Rp1537
(I1
(I1
tp1538
g12
I00
S'\xfd[\x963\x12\x063@'
p1539
tp1540
bag2
(g3
(I0
tp1541
g5
tp1542
Rp1543
(I1
(I1
tp1544
g12
I00
S's\xb7$\xb4gA3@'
p1545
tp1546
bag2
(g3
(I0
tp1547
g5
tp1548
Rp1549
(I1
(I1
tp1550
g12
I00
S'>Do[\xc2|3@'
p1551
tp1552
bag2
(g3
(I0
tp1553
g5
tp1554
Rp1555
(I1
(I1
tp1556
g12
I00
S'%\xcc8\xc5\xe8\xb73@'
p1557
tp1558
bag2
(g3
(I0
tp1559
g5
tp1560
Rp1561
(I1
(I1
tp1562
g12
I00
S'\x19\xcf\xf3\x1d\x81\xf33@'
p1563
tp1564
bag2
(g3
(I0
tp1565
g5
tp1566
Rp1567
(I1
(I1
tp1568
g12
I00
S'\xf1w?\xcc\x83.4@'
p1569
tp1570
bag2
(g3
(I0
tp1571
g5
tp1572
Rp1573
(I1
(I1
tp1574
g12
I00
S'\r\xf9.r\xabi4@'
p1575
tp1576
bag2
(g3
(I0
tp1577
g5
tp1578
Rp1579
(I1
(I1
tp1580
g12
I00
S'\x11\xf5\xd6\x0c\xd1\xa44@'
p1581
tp1582
baa(lp1583
g2
(g3
(I0
tp1584
g5
tp1585
Rp1586
(I1
(I1
tp1587
g12
I00
S'~\xf3\xe6\xc5\xf0\x800@'
p1588
tp1589
bag2
(g3
(I0
tp1590
g5
tp1591
Rp1592
(I1
(I1
tp1593
g12
I00
S'9a\xf4\xd8\x0b\xbd0@'
p1594
tp1595
bag2
(g3
(I0
tp1596
g5
tp1597
Rp1598
(I1
(I1
tp1599
g12
I00
S'b\x99z\x94\xdf\xf80@'
p1600
tp1601
bag2
(g3
(I0
tp1602
g5
tp1603
Rp1604
(I1
(I1
tp1605
g12
I00
S'+\x14\xb7,\x9f41@'
p1606
tp1607
bag2
(g3
(I0
tp1608
g5
tp1609
Rp1610
(I1
(I1
tp1611
g12
I00
S'\xf9\xd0`\x90\x9ap1@'
p1612
tp1613
bag2
(g3
(I0
tp1614
g5
tp1615
Rp1616
(I1
(I1
tp1617
g12
I00
S'\xd7\x90\xc2\xec\x04\xad1@'
p1618
tp1619
bag2
(g3
(I0
tp1620
g5
tp1621
Rp1622
(I1
(I1
tp1623
g12
I00
S'\xbf\x0f\xbe\xf0\xd3\xe91@'
p1624
tp1625
bag2
(g3
(I0
tp1626
g5
tp1627
Rp1628
(I1
(I1
tp1629
g12
I00
S"\xff\x8a]j\x11'2@"
p1630
tp1631
bag2
(g3
(I0
tp1632
g5
tp1633
Rp1634
(I1
(I1
tp1635
g12
I00
S'\x1d\x0e\xedS\xa0d2@'
p1636
tp1637
bag2
(g3
(I0
tp1638
g5
tp1639
Rp1640
(I1
(I1
tp1641
g12
I00
S'B\x95|\xf7c\xa22@'
p1642
tp1643
bag2
(g3
(I0
tp1644
g5
tp1645
Rp1646
(I1
(I1
tp1647
g12
I00
S'\nG\xda\xabn\xe02@'
p1648
tp1649
bag2
(g3
(I0
tp1650
g5
tp1651
Rp1652
(I1
(I1
tp1653
g12
I00
S'fP\xbaN\x9a\x1e3@'
p1654
tp1655
bag2
(g3
(I0
tp1656
g5
tp1657
Rp1658
(I1
(I1
tp1659
g12
I00
S'\xe2)\x9fD\xcb\\3@'
p1660
tp1661
bag2
(g3
(I0
tp1662
g5
tp1663
Rp1664
(I1
(I1
tp1665
g12
I00
S'Lf\x95\x96\xf5\x9a3@'
p1666
tp1667
bag2
(g3
(I0
tp1668
g5
tp1669
Rp1670
(I1
(I1
tp1671
g12
I00
S'\xfa\xa2\xa3\xf3$\xd93@'
p1672
tp1673
bag2
(g3
(I0
tp1674
g5
tp1675
Rp1676
(I1
(I1
tp1677
g12
I00
S'\xb4\xeb\xe3 ,\x174@'
p1678
tp1679
bag2
(g3
(I0
tp1680
g5
tp1681
Rp1682
(I1
(I1
tp1683
g12
I00
S'\x15\xd18tSU4@'
p1684
tp1685
bag2
(g3
(I0
tp1686
g5
tp1687
Rp1688
(I1
(I1
tp1689
g12
I00
S'x\xc9\xf6\xb8^\x934@'
p1690
tp1691
bag2
(g3
(I0
tp1692
g5
tp1693
Rp1694
(I1
(I1
tp1695
g12
I00
S'<T\xc40<\xd14@'
p1696
tp1697
bag2
(g3
(I0
tp1698
g5
tp1699
Rp1700
(I1
(I1
tp1701
g12
I00
S'\xf0T\x9d\x9fi\xf04@'
p1702
tp1703
baa(lp1704
g2
(g3
(I0
tp1705
g5
tp1706
Rp1707
(I1
(I1
tp1708
g12
I00
S'\x0e\x8c0\xc1\xa5\xae0@'
p1709
tp1710
bag2
(g3
(I0
tp1711
g5
tp1712
Rp1713
(I1
(I1
tp1714
g12
I00
S'\xd6\x85\xc7\r\xef\xec0@'
p1715
tp1716
bag2
(g3
(I0
tp1717
g5
tp1718
Rp1719
(I1
(I1
tp1720
g12
I00
S'\xde\x1d\xfb\x1e\x13+1@'
p1721
tp1722
bag2
(g3
(I0
tp1723
g5
tp1724
Rp1725
(I1
(I1
tp1726
g12
I00
S'\x96\xe4Knei1@'
p1727
tp1728
bag2
(g3
(I0
tp1729
g5
tp1730
Rp1731
(I1
(I1
tp1732
g12
I00
S"\xc5\xc4\xd4g'\xa81@"
p1733
tp1734
bag2
(g3
(I0
tp1735
g5
tp1736
Rp1737
(I1
(I1
tp1738
g12
I00
S'\x08\x9e\xa6E]\xe71@'
p1739
tp1740
bag2
(g3
(I0
tp1741
g5
tp1742
Rp1743
(I1
(I1
tp1744
g12
I00
S")\xed\xfa\\\x01'2@"
p1745
tp1746
bag2
(g3
(I0
tp1747
g5
tp1748
Rp1749
(I1
(I1
tp1750
g12
I00
S'L\xc0\xb8k\x02g2@'
p1751
tp1752
bag2
(g3
(I0
tp1753
g5
tp1754
Rp1755
(I1
(I1
tp1756
g12
I00
S'\x8f\x843VS\xa72@'
p1757
tp1758
bag2
(g3
(I0
tp1759
g5
tp1760
Rp1761
(I1
(I1
tp1762
g12
I00
S'\x89\xfb\xd0.\xd5\xe72@'
p1763
tp1764
bag2
(g3
(I0
tp1765
g5
tp1766
Rp1767
(I1
(I1
tp1768
g12
I00
S'\xb0\xf8{\x1es(3@'
p1769
tp1770
bag2
(g3
(I0
tp1771
g5
tp1772
Rp1773
(I1
(I1
tp1774
g12
I00
S'\xceo\x05\xa7\x0ei3@'
p1775
tp1776
bag2
(g3
(I0
tp1777
g5
tp1778
Rp1779
(I1
(I1
tp1780
g12
I00
S'(\xa8\x0c\xa2\xe3\xa93@'
p1781
tp1782
bag2
(g3
(I0
tp1783
g5
tp1784
Rp1785
(I1
(I1
tp1786
g12
I00
S'\xfe@*\x83\x8b\xea3@'
p1787
tp1788
bag2
(g3
(I0
tp1789
g5
tp1790
Rp1791
(I1
(I1
tp1792
g12
I00
S'h\x81\x19\xa5/+4@'
p1793
tp1794
bag2
(g3
(I0
tp1795
g5
tp1796
Rp1797
(I1
(I1
tp1798
g12
I00
S'A\x08\x0eT\xafk4@'
p1799
tp1800
bag2
(g3
(I0
tp1801
g5
tp1802
Rp1803
(I1
(I1
tp1804
g12
I00
S'\xfb\x868\xf01\xac4@'
p1805
tp1806
bag2
(g3
(I0
tp1807
g5
tp1808
Rp1809
(I1
(I1
tp1810
g12
I00
S'$\xc0\xec2]\xce4@'
p1811
tp1812
bag2
(g3
(I0
tp1813
g5
tp1814
Rp1815
(I1
(I1
tp1816
g12
I00
S'\x02\xb4\xaaSk\r5@'
p1817
tp1818
bag2
(g3
(I0
tp1819
g5
tp1820
Rp1821
(I1
(I1
tp1822
g12
I00
S'\x12\xacs\x9eTL5@'
p1823
tp1824
baa(lp1825
g2
(g3
(I0
tp1826
g5
tp1827
Rp1828
(I1
(I1
tp1829
g12
I00
S'@\xe5\xbb\xa9b\xd70@'
p1830
tp1831
bag2
(g3
(I0
tp1832
g5
tp1833
Rp1834
(I1
(I1
tp1835
g12
I00
S'\x91\xf6\x1e\x1c\xad\x171@'
p1836
tp1837
bag2
(g3
(I0
tp1838
g5
tp1839
Rp1840
(I1
(I1
tp1841
g12
I00
S'\x1bd2\xd8\tX1@'
p1842
tp1843
bag2
(g3
(I0
tp1844
g5
tp1845
Rp1846
(I1
(I1
tp1847
g12
I00
S'd\xe3\x1a\x8c\xcf\x981@'
p1848
tp1849
bag2
(g3
(I0
tp1850
g5
tp1851
Rp1852
(I1
(I1
tp1853
g12
I00
S'z\xae\x12\xe8\x17\xda1@'
p1854
tp1855
bag2
(g3
(I0
tp1856
g5
tp1857
Rp1858
(I1
(I1
tp1859
g12
I00
S'\xaa~J\xe5\xc8\x1b2@'
p1860
tp1861
bag2
(g3
(I0
tp1862
g5
tp1863
Rp1864
(I1
(I1
tp1865
g12
I00
S'p@\xff\xec\xe6]2@'
p1866
tp1867
bag2
(g3
(I0
tp1868
g5
tp1869
Rp1870
(I1
(I1
tp1871
g12
I00
S'\xceZv\xd6_\xa02@'
p1872
tp1873
bag2
(g3
(I0
tp1874
g5
tp1875
Rp1876
(I1
(I1
tp1877
g12
I00
S"\xff\xb8\xcb'\x13\xe32@"
p1878
tp1879
bag2
(g3
(I0
tp1880
g5
tp1881
Rp1882
(I1
(I1
tp1883
g12
I00
S'\xb11\xa4\xa9\xdd%3@'
p1884
tp1885
bag2
(g3
(I0
tp1886
g5
tp1887
Rp1888
(I1
(I1
tp1889
g12
I00
S'\xce\xd5R4\xa0h3@'
p1890
tp1891
bag2
(g3
(I0
tp1892
g5
tp1893
Rp1894
(I1
(I1
tp1895
g12
I00
S'\xf5y`S\xb7\xab3@'
p1896
tp1897
bag2
(g3
(I0
tp1898
g5
tp1899
Rp1900
(I1
(I1
tp1901
g12
I00
S'\xc3^\xb5\xd4\x8c\xee3@'
p1902
tp1903
bag2
(g3
(I0
tp1904
g5
tp1905
Rp1906
(I1
(I1
tp1907
g12
I00
S'R\xc6t\x00f14@'
p1908
tp1909
bag2
(g3
(I0
tp1910
g5
tp1911
Rp1912
(I1
(I1
tp1913
g12
I00
S'\xe8\x12\xe6c t4@'
p1914
tp1915
bag2
(g3
(I0
tp1916
g5
tp1917
Rp1918
(I1
(I1
tp1919
g12
I00
S'\xc1\xc3\x13\xa5\xcc\xb64@'
p1920
tp1921
bag2
(g3
(I0
tp1922
g5
tp1923
Rp1924
(I1
(I1
tp1925
g12
I00
S'`\xdf\x15e\xc6\xda4@'
p1926
tp1927
bag2
(g3
(I0
tp1928
g5
tp1929
Rp1930
(I1
(I1
tp1931
g12
I00
S'\x1e\xc4\xcc\x9c\xdc\x1b5@'
p1932
tp1933
bag2
(g3
(I0
tp1934
g5
tp1935
Rp1936
(I1
(I1
tp1937
g12
I00
S'\x0f\xf0F\x1c\xc4\\5@'
p1938
tp1939
bag2
(g3
(I0
tp1940
g5
tp1941
Rp1942
(I1
(I1
tp1943
g12
I00
S'\xcb\x99)\x89q\x9d5@'
p1944
tp1945
baa(lp1946
g2
(g3
(I0
tp1947
g5
tp1948
Rp1949
(I1
(I1
tp1950
g12
I00
S'm\x16\x87O\xd8\xfb0@'
p1951
tp1952
bag2
(g3
(I0
tp1953
g5
tp1954
Rp1955
(I1
(I1
tp1956
g12
I00
S'@\x89\x85E\x08>1@'
p1957
tp1958
bag2
(g3
(I0
tp1959
g5
tp1960
Rp1961
(I1
(I1
tp1962
g12
I00
S'"\x9fi0\x86\x801@'
p1963
tp1964
bag2
(g3
(I0
tp1965
g5
tp1966
Rp1967
(I1
(I1
tp1968
g12
I00
S'\xf3\xaf\xf0@\x86\xc31@'
p1969
tp1970
bag2
(g3
(I0
tp1971
g5
tp1972
Rp1973
(I1
(I1
tp1974
g12
I00
S'\x90\xa9\xa3S\x03\x072@'
p1975
tp1976
bag2
(g3
(I0
tp1977
g5
tp1978
Rp1979
(I1
(I1
tp1980
g12
I00
S'\xea\x99\xb7\x8d\xf0J2@'
p1981
tp1982
bag2
(g3
(I0
tp1983
g5
tp1984
Rp1985
(I1
(I1
tp1986
g12
I00
S'<u\xb2WH\x8f2@'
p1987
tp1988
bag2
(g3
(I0
tp1989
g5
tp1990
Rp1991
(I1
(I1
tp1992
g12
I00
S'Y1M\xdc\xe9\xd32@'
p1993
tp1994
bag2
(g3
(I0
tp1995
g5
tp1996
Rp1997
(I1
(I1
tp1998
g12
I00
S'j\xe6\xc77\xab\x183@'
p1999
tp2000
bag2
(g3
(I0
tp2001
g5
tp2002
Rp2003
(I1
(I1
tp2004
g12
I00
S'\xd6\xbd\x89\x99\x89]3@'
p2005
tp2006
bag2
(g3
(I0
tp2007
g5
tp2008
Rp2009
(I1
(I1
tp2010
g12
I00
S"'X\x0c\x97j\xa23@"
p2011
tp2012
bag2
(g3
(I0
tp2013
g5
tp2014
Rp2015
(I1
(I1
tp2016
g12
I00
S'\xfb#\x86\xb4L\xe73@'
p2017
tp2018
bag2
(g3
(I0
tp2019
g5
tp2020
Rp2021
(I1
(I1
tp2022
g12
I00
S'\xc0\xbat\xe6\xfc+4@'
p2023
tp2024
bag2
(g3
(I0
tp2025
g5
tp2026
Rp2027
(I1
(I1
tp2028
g12
I00
S'\xec\xf3\xeb|\x98p4@'
p2029
tp2030
bag2
(g3
(I0
tp2031
g5
tp2032
Rp2033
(I1
(I1
tp2034
g12
I00
S'\xbaI\xd4\x14\n\xb54@'
p2035
tp2036
bag2
(g3
(I0
tp2037
g5
tp2038
Rp2039
(I1
(I1
tp2040
g12
I00
S"\x19r'\x18\x13\xdb4@"
p2041
tp2042
bag2
(g3
(I0
tp2043
g5
tp2044
Rp2045
(I1
(I1
tp2046
g12
I00
S'\xc8\x8eXg\xff\x1d5@'
p2047
tp2048
bag2
(g3
(I0
tp2049
g5
tp2050
Rp2051
(I1
(I1
tp2052
g12
I00
S'$\xec\x05\xe9\xac`5@'
p2053
tp2054
bag2
(g3
(I0
tp2055
g5
tp2056
Rp2057
(I1
(I1
tp2058
g12
I00
S'\x078\x08\x1b\x1e\xa35@'
p2059
tp2060
bag2
(g3
(I0
tp2061
g5
tp2062
Rp2063
(I1
(I1
tp2064
g12
I00
S'\xe6"\xf6\xcbB\xe55@'
p2065
tp2066
baa(lp2067
g2
(g3
(I0
tp2068
g5
tp2069
Rp2070
(I1
(I1
tp2071
g12
I00
S'\xbe\xde\xa53\x9e\x1c1@'
p2072
tp2073
bag2
(g3
(I0
tp2074
g5
tp2075
Rp2076
(I1
(I1
tp2077
g12
I00
S'=\\\xec\xf1\x9f`1@'
p2078
tp2079
bag2
(g3
(I0
tp2080
g5
tp2081
Rp2082
(I1
(I1
tp2083
g12
I00
S'\x88H\xf5o\x17\xa51@'
p2084
tp2085
bag2
(g3
(I0
tp2086
g5
tp2087
Rp2088
(I1
(I1
tp2089
g12
I00
S'*"*\x8b\x1b\xea1@'
p2090
tp2091
bag2
(g3
(I0
tp2092
g5
tp2093
Rp2094
(I1
(I1
tp2095
g12
I00
S'\x08\xe4<\xc6\x94/2@'
p2096
tp2097
bag2
(g3
(I0
tp2098
g5
tp2099
Rp2100
(I1
(I1
tp2101
g12
I00
S'\xdc\xea\x1d\x03\x86u2@'
p2102
tp2103
bag2
(g3
(I0
tp2104
g5
tp2105
Rp2106
(I1
(I1
tp2107
g12
I00
S'\x03Ho\xce\xc7\xbb2@'
p2108
tp2109
bag2
(g3
(I0
tp2110
g5
tp2111
Rp2112
(I1
(I1
tp2113
g12
I00
S'#\x0c\xf1\xe4M\x023@'
p2114
tp2115
bag2
(g3
(I0
tp2116
g5
tp2117
Rp2118
(I1
(I1
tp2119
g12
I00
S'Qc2\xdd\xe6H3@'
p2120
tp2121
bag2
(g3
(I0
tp2122
g5
tp2123
Rp2124
(I1
(I1
tp2125
g12
I00
S'\x0b\x0b \x14\xa8\x8f3@'
p2126
tp2127
bag2
(g3
(I0
tp2128
g5
tp2129
Rp2130
(I1
(I1
tp2131
g12
I00
S'\xa0\xcf\x16\xb1#\xd63@'
p2132
tp2133
bag2
(g3
(I0
tp2134
g5
tp2135
Rp2136
(I1
(I1
tp2137
g12
I00
S'\x8b\xef0p\xa2\x1c4@'
p2138
tp2139
bag2
(g3
(I0
tp2140
g5
tp2141
Rp2142
(I1
(I1
tp2143
g12
I00
S'\xa6\xbd\xa9\x8f\xf7b4@'
p2144
tp2145
bag2
(g3
(I0
tp2146
g5
tp2147
Rp2148
(I1
(I1
tp2149
g12
I00
S'q\xad\xc8\xd8!\xa94@'
p2150
tp2151
bag2
(g3
(I0
tp2152
g5
tp2153
Rp2154
(I1
(I1
tp2155
g12
I00
S'\xab\xdecG\x12\xd14@'
p2156
tp2157
bag2
(g3
(I0
tp2158
g5
tp2159
Rp2160
(I1
(I1
tp2161
g12
I00
S'l\x0c{E\xa4\x155@'
p2162
tp2163
bag2
(g3
(I0
tp2164
g5
tp2165
Rp2166
(I1
(I1
tp2167
g12
I00
S'j\xac\x1c\\\xf0Y5@'
p2168
tp2169
bag2
(g3
(I0
tp2170
g5
tp2171
Rp2172
(I1
(I1
tp2173
g12
I00
S'?n{V\xf0\x9d5@'
p2174
tp2175
bag2
(g3
(I0
tp2176
g5
tp2177
Rp2178
(I1
(I1
tp2179
g12
I00
S'\xa4\xd5v\x1f\xa6\xe15@'
p2180
tp2181
bag2
(g3
(I0
tp2182
g5
tp2183
Rp2184
(I1
(I1
tp2185
g12
I00
S'\xac\xc8-M\x06%6@'
p2186
tp2187
baa(lp2188
g2
(g3
(I0
tp2189
g5
tp2190
Rp2191
(I1
(I1
tp2192
g12
I00
S'v\xc8\xad\xd55:1@'
p2193
tp2194
bag2
(g3
(I0
tp2195
g5
tp2196
Rp2197
(I1
(I1
tp2198
g12
I00
S'\xb9\x12\x8bA\xf0\x7f1@'
p2199
tp2200
bag2
(g3
(I0
tp2201
g5
tp2202
Rp2203
(I1
(I1
tp2204
g12
I00
S'x\x9f2\x016\xc61@'
p2205
tp2206
bag2
(g3
(I0
tp2207
g5
tp2208
Rp2209
(I1
(I1
tp2210
g12
I00
S"'k\xc2\x94\x04\r2@"
p2211
tp2212
bag2
(g3
(I0
tp2213
g5
tp2214
Rp2215
(I1
(I1
tp2216
g12
I00
S'\xc1iC\xd9LT2@'
p2217
tp2218
bag2
(g3
(I0
tp2219
g5
tp2220
Rp2221
(I1
(I1
tp2222
g12
I00
S'\x93\xc1\x1d\x06\x03\x9c2@'
p2223
tp2224
bag2
(g3
(I0
tp2225
g5
tp2226
Rp2227
(I1
(I1
tp2228
g12
I00
S'\xe3\xc0\xe8\x8a\x00\xe42@'
p2229
tp2230
bag2
(g3
(I0
tp2231
g5
tp2232
Rp2233
(I1
(I1
tp2234
g12
I00
S'\x84D\xd3\x95+,3@'
p2235
tp2236
bag2
(g3
(I0
tp2237
g5
tp2238
Rp2239
(I1
(I1
tp2240
g12
I00
S'e\xc4\xe3\xc0et3@'
p2241
tp2242
bag2
(g3
(I0
tp2243
g5
tp2244
Rp2245
(I1
(I1
tp2246
g12
I00
S'0R\xbb\x86\xc1\xbc3@'
p2247
tp2248
bag2
(g3
(I0
tp2249
g5
tp2250
Rp2251
(I1
(I1
tp2252
g12
I00
S'\xca\xa0`y\xaf\x044@'
p2253
tp2254
bag2
(g3
(I0
tp2255
g5
tp2256
Rp2257
(I1
(I1
tp2258
g12
I00
S'Y\x93\xde]\xf5t+@'
p2259
tp2260
bag2
(g3
(I0
tp2261
g5
tp2262
Rp2263
(I1
(I1
tp2264
g12
I00
S'h\xeb\x7f7y\x944@'
p2265
tp2266
bag2
(g3
(I0
tp2267
g5
tp2268
Rp2269
(I1
(I1
tp2270
g12
I00
S'\xe2\xe5/\xc13\xbe4@'
p2271
tp2272
bag2
(g3
(I0
tp2273
g5
tp2274
Rp2275
(I1
(I1
tp2276
g12
I00
S'\xcbB^BO\x045@'
p2277
tp2278
bag2
(g3
(I0
tp2279
g5
tp2280
Rp2281
(I1
(I1
tp2282
g12
I00
S'\xb8\xe7\x17 \x19J5@'
p2283
tp2284
bag2
(g3
(I0
tp2285
g5
tp2286
Rp2287
(I1
(I1
tp2288
g12
I00
S'\xe2e\x8d\xf6\x99\x8f5@'
p2289
tp2290
bag2
(g3
(I0
tp2291
g5
tp2292
Rp2293
(I1
(I1
tp2294
g12
I00
S'<]L\xc1\xb3\xd45@'
p2295
tp2296
bag2
(g3
(I0
tp2297
g5
tp2298
Rp2299
(I1
(I1
tp2300
g12
I00
S'\xfc\xf2\xff,p\x196@'
p2301
tp2302
bag2
(g3
(I0
tp2303
g5
tp2304
Rp2305
(I1
(I1
tp2306
g12
I00
S'\xab\xdc\x1a\x1f\xd6]6@'
p2307
tp2308
baa(lp2309
g2
(g3
(I0
tp2310
g5
tp2311
Rp2312
(I1
(I1
tp2313
g12
I00
S'\x08\x1c\x0f\x16\x08U1@'
p2314
tp2315
bag2
(g3
(I0
tp2316
g5
tp2317
Rp2318
(I1
(I1
tp2319
g12
I00
S'\xce+@\xde[\x9c1@'
p2320
tp2321
bag2
(g3
(I0
tp2322
g5
tp2323
Rp2324
(I1
(I1
tp2325
g12
I00
S'K\x85\xc9\xc7C\xe41@'
p2326
tp2327
bag2
(g3
(I0
tp2328
g5
tp2329
Rp2330
(I1
(I1
tp2331
g12
I00
S'\x12 yy\xae,2@'
p2332
tp2333
bag2
(g3
(I0
tp2334
g5
tp2335
Rp2336
(I1
(I1
tp2337
g12
I00
S'?\x0bn\xa0\x96u2@'
p2338
tp2339
bag2
(g3
(I0
tp2340
g5
tp2341
Rp2342
(I1
(I1
tp2343
g12
I00
S'\xeeB\xa6\t\xe3\xbe2@'
p2344
tp2345
bag2
(g3
(I0
tp2346
g5
tp2347
Rp2348
(I1
(I1
tp2349
g12
I00
S'"\x13\xc2Zm\x083@'
p2350
tp2351
bag2
(g3
(I0
tp2352
g5
tp2353
Rp2354
(I1
(I1
tp2355
g12
I00
S'\\\xbfVK\x14R3@'
p2356
tp2357
bag2
(g3
(I0
tp2358
g5
tp2359
Rp2360
(I1
(I1
tp2361
g12
I00
S'\t\xf6\xd3\x96\xb6\x9b3@'
p2362
tp2363
bag2
(g3
(I0
tp2364
g5
tp2365
Rp2366
(I1
(I1
tp2367
g12
I00
S'#\xde\xce\xe6\x9c~*@'
p2368
tp2369
bag2
(g3
(I0
tp2370
g5
tp2371
Rp2372
(I1
(I1
tp2373
g12
I00
S'\xc55\x17\x1e\xaa.4@'
p2374
tp2375
bag2
(g3
(I0
tp2376
g5
tp2377
Rp2378
(I1
(I1
tp2379
g12
I00
S'\xd6#\xc4x\xefw4@'
p2380
tp2381
bag2
(g3
(I0
tp2382
g5
tp2383
Rp2384
(I1
(I1
tp2385
g12
I00
S'8\x05\x06f\xaa\xa34@'
p2386
tp2387
bag2
(g3
(I0
tp2388
g5
tp2389
Rp2390
(I1
(I1
tp2391
g12
I00
S'>\xbc\xc3\x9d-\xeb4@'
p2392
tp2393
bag2
(g3
(I0
tp2394
g5
tp2395
Rp2396
(I1
(I1
tp2397
g12
I00
S'\xb3K\xed\xd1^25@'
p2398
tp2399
bag2
(g3
(I0
tp2400
g5
tp2401
Rp2402
(I1
(I1
tp2403
g12
I00
S'\\::\xdb6y5@'
p2404
tp2405
bag2
(g3
(I0
tp2406
g5
tp2407
Rp2408
(I1
(I1
tp2409
g12
I00
S'U/\x1a[\xab\xbf5@'
p2410
tp2411
bag2
(g3
(I0
tp2412
g5
tp2413
Rp2414
(I1
(I1
tp2415
g12
I00
S'\x00\xaa~k\xbc\x056@'
p2416
tp2417
bag2
(g3
(I0
tp2418
g5
tp2419
Rp2420
(I1
(I1
tp2421
g12
I00
S'\x01\xae\xe6UaK6@'
p2422
tp2423
bag2
(g3
(I0
tp2424
g5
tp2425
Rp2426
(I1
(I1
tp2427
g12
I00
S'\x9cw\xc7u\x9e\x906@'
p2428
tp2429
baa.