(lp0
(lp1
cnumpy.core.multiarray
_reconstruct
p2
(cnumpy
ndarray
p3
(I0
tp4
S'b'
p5
tp6
Rp7
(I1
(I1
tp8
cnumpy
dtype
p9
(S'f8'
p10
I0
I1
tp11
Rp12
(I3
S'<'
p13
NNNI-1
I-1
I0
tp14
bI00
S'\xecUa\xc0\xb81\xd3?'
p15
tp16
bag2
(g3
(I0
tp17
g5
tp18
Rp19
(I1
(I1
tp20
g12
I00
S'|\xa7\x84X\xb1y\xd1?'
p21
tp22
bag2
(g3
(I0
tp23
g5
tp24
Rp25
(I1
(I1
tp26
g12
I00
S'\xc0k\x9enxb\xcf?'
p27
tp28
bag2
(g3
(I0
tp29
g5
tp30
Rp31
(I1
(I1
tp32
g12
I00
S'\xb3u\xde\xa3\x08\xb2\xcb?'
p33
tp34
bag2
(g3
(I0
tp35
g5
tp36
Rp37
(I1
(I1
tp38
g12
I00
S'\xf1&\rKt\xe3\xc7?'
p39
tp40
bag2
(g3
(I0
tp41
g5
tp42
Rp43
(I1
(I1
tp44
g12
I00
S'\x9b\xda\xcf\xad_\xf8\xc3?'
p45
tp46
bag2
(g3
(I0
tp47
g5
tp48
Rp49
(I1
(I1
tp50
g12
I00
S'u\xcf\x05L\xfa\xe4\xbf?'
p51
tp52
bag2
(g3
(I0
tp53
g5
tp54
Rp55
(I1
(I1
tp56
g12
I00
S'P\x14\xb6\xa6L\xa7\xb7?'
p57
tp58
bag2
(g3
(I0
tp59
g5
tp60
Rp61
(I1
(I1
tp62
g12
I00
S'\x96]\xa42iw\xae?'
p63
tp64
bag2
(g3
(I0
tp65
g5
tp66
Rp67
(I1
(I1
tp68
g12
I00
S'\xdat\x8b\xb59\x99\x9a?'
p69
tp70
bag2
(g3
(I0
tp71
g5
tp72
Rp73
(I1
(I1
tp74
g12
I00
S'\nxW\xb8&\xa3\x80\xbf'
p75
tp76
bag2
(g3
(I0
tp77
g5
tp78
Rp79
(I1
(I1
tp80
g12
I00
S'\xb6\xe2Y\x9c\xe8\xe0\xa5\xbf'
p81
tp82
bag2
(g3
(I0
tp83
g5
tp84
Rp85
(I1
(I1
tp86
g12
I00
S'\xdf\xd3\xe3\xb6/\xe8\xb3\xbf'
p87
tp88
bag2
(g3
(I0
tp89
g5
tp90
Rp91
(I1
(I1
tp92
g12
I00
S'\x82\xa7XR\xff\xf6\xbc\xbf'
p93
tp94
bag2
(g3
(I0
tp95
g5
tp96
Rp97
(I1
(I1
tp98
g12
I00
S'y\x1aD\xda\xa2\x0b\xc3\xbf'
p99
tp100
bag2
(g3
(I0
tp101
g5
tp102
Rp103
(I1
(I1
tp104
g12
I00
S'\xda\xc64\x07\xe8\xa1\xc7\xbf'
p105
tp106
bag2
(g3
(I0
tp107
g5
tp108
Rp109
(I1
(I1
tp110
g12
I00
S'\xa0\x98\xd8\xdf3:\xcc\xbf'
p111
tp112
bag2
(g3
(I0
tp113
g5
tp114
Rp115
(I1
(I1
tp116
g12
I00
S'\x00\x15KG\x87g\xd0\xbf'
p117
tp118
bag2
(g3
(I0
tp119
g5
tp120
Rp121
(I1
(I1
tp122
g12
I00
S'-\x1c\xce\xc4\xa7\xad\xd2\xbf'
p123
tp124
bag2
(g3
(I0
tp125
g5
tp126
Rp127
(I1
(I1
tp128
g12
I00
S'M\x06\x07\xc6+\xeb\xd4\xbf'
p129
tp130
baa(lp131
g2
(g3
(I0
tp132
g5
tp133
Rp134
(I1
(I1
tp135
g12
I00
S'\xb5\xcd\xc9~>\xae\xd7?'
p136
tp137
bag2
(g3
(I0
tp138
g5
tp139
Rp140
(I1
(I1
tp141
g12
I00
S'\xfa\xcbJO}d\xd6?'
p142
tp143
bag2
(g3
(I0
tp144
g5
tp145
Rp146
(I1
(I1
tp147
g12
I00
S"{['F\x8f\x0f\xd5?"
p148
tp149
bag2
(g3
(I0
tp150
g5
tp151
Rp152
(I1
(I1
tp153
g12
I00
S'\x80$*\x7f \xb0\xd3?'
p154
tp155
bag2
(g3
(I0
tp156
g5
tp157
Rp158
(I1
(I1
tp159
g12
I00
S'Z\xd3>\x82\xdcF\xd2?'
p160
tp161
bag2
(g3
(I0
tp162
g5
tp163
Rp164
(I1
(I1
tp165
g12
I00
S'\xb8\xa2\xa1\x86\x87\xd4\xd0?'
p166
tp167
bag2
(g3
(I0
tp168
g5
tp169
Rp170
(I1
(I1
tp171
g12
I00
S'\x0b\xf5\x7f\x03\xe1\xb3\xce?'
p172
tp173
bag2
(g3
(I0
tp174
g5
tp175
Rp176
(I1
(I1
tp177
g12
I00
S'\x9c\x84Tf\xed\xaf\xcb?'
p178
tp179
bag2
(g3
(I0
tp180
g5
tp181
Rp182
(I1
(I1
tp183
g12
I00
S'\xccm\xd3\xec\x1d\x9f\xc8?'
p184
tp185
bag2
(g3
(I0
tp186
g5
tp187
Rp188
(I1
(I1
tp189
g12
I00
S'\xf8L\xb5\xc7Q\x83\xc5?'
p190
tp191
bag2
(g3
(I0
tp192
g5
tp193
Rp194
(I1
(I1
tp195
g12
I00
S'\xdf\x92J\x98\x9c^\xc2?'
p196
tp197
bag2
(g3
(I0
tp198
g5
tp199
Rp200
(I1
(I1
tp201
g12
I00
S'G\xfc\x0e;\x94f\xbe?'
p202
tp203
bag2
(g3
(I0
tp204
g5
tp205
Rp206
(I1
(I1
tp207
g12
I00
S'J\x9e+xf\x07\xb8?'
p208
tp209
bag2
(g3
(I0
tp210
g5
tp211
Rp212
(I1
(I1
tp213
g12
I00
S'?\xdc\x1bi\xda\xa4\xb1?'
p214
tp215
bag2
(g3
(I0
tp216
g5
tp217
Rp218
(I1
(I1
tp219
g12
I00
S'\xbf\xb4\xccP\x9d\x89\xa6?'
p220
tp221
bag2
(g3
(I0
tp222
g5
tp223
Rp224
(I1
(I1
tp225
g12
I00
S'x\xe2\xd3aM\xb5\x93?'
p226
tp227
bag2
(g3
(I0
tp228
g5
tp229
Rp230
(I1
(I1
tp231
g12
I00
S'\xa1k\xa1\xaa\xd6\xa9u\xbf'
p232
tp233
bag2
(g3
(I0
tp234
g5
tp235
Rp236
(I1
(I1
tp237
g12
I00
S'XjIT\x88&\x9e\xbf'
p238
tp239
bag2
(g3
(I0
tp240
g5
tp241
Rp242
(I1
(I1
tp243
g12
I00
S'[=\r6\xa4*\xab\xbf'
p244
tp245
bag2
(g3
(I0
tp246
g5
tp247
Rp248
(I1
(I1
tp249
g12
I00
S'r\xf2\xcc#*p\xb3\xbf'
p250
tp251
baa(lp252
g2
(g3
(I0
tp253
g5
tp254
Rp255
(I1
(I1
tp256
g12
I00
S'\xaa{`ZT3\xdc?'
p257
tp258
bag2
(g3
(I0
tp259
g5
tp260
Rp261
(I1
(I1
tp262
g12
I00
S'\xb7NpjkX\xdb?'
p263
tp264
bag2
(g3
(I0
tp265
g5
tp266
Rp267
(I1
(I1
tp268
g12
I00
S'\xd8/,l\x93w\xda?'
p269
tp270
bag2
(g3
(I0
tp271
g5
tp272
Rp273
(I1
(I1
tp274
g12
I00
S'u\xc5\xcd#j\x91\xd9?'
p275
tp276
bag2
(g3
(I0
tp277
g5
tp278
Rp279
(I1
(I1
tp280
g12
I00
S'{\xfb\x84h\xa2\xa6\xd8?'
p281
tp282
bag2
(g3
(I0
tp283
g5
tp284
Rp285
(I1
(I1
tp286
g12
I00
S'|c\xe1:\xf8\xb7\xd7?'
p287
tp288
bag2
(g3
(I0
tp289
g5
tp290
Rp291
(I1
(I1
tp292
g12
I00
S'\xf1\xe2\x13T-\xc6\xd6?'
p293
tp294
bag2
(g3
(I0
tp295
g5
tp296
Rp297
(I1
(I1
tp298
g12
I00
S"\x0e'\x07*\t\xd2\xd5?"
p299
tp300
bag2
(g3
(I0
tp301
g5
tp302
Rp303
(I1
(I1
tp304
g12
I00
S'\x0f)\xd6\xeeu\xdc\xd4?'
p305
tp306
bag2
(g3
(I0
tp307
g5
tp308
Rp309
(I1
(I1
tp310
g12
I00
S'\xd6|\x05\nb\xe6\xd3?'
p311
tp312
bag2
(g3
(I0
tp313
g5
tp314
Rp315
(I1
(I1
tp316
g12
I00
S'\x07\xec\xa6a\xbc\xf0\xd2?'
p317
tp318
bag2
(g3
(I0
tp319
g5
tp320
Rp321
(I1
(I1
tp322
g12
I00
S'\x07\x9d\xf0\n\x98\xfc\xd1?'
p323
tp324
bag2
(g3
(I0
tp325
g5
tp326
Rp327
(I1
(I1
tp328
g12
I00
S'\xf3Z\x18\xe5\x0e\x0b\xd1?'
p329
tp330
bag2
(g3
(I0
tp331
g5
tp332
Rp333
(I1
(I1
tp334
g12
I00
S'\x10h\x92\xaeW\x1d\xd0?'
p335
tp336
bag2
(g3
(I0
tp337
g5
tp338
Rp339
(I1
(I1
tp340
g12
I00
S'K\xa88e\x85i\xce?'
p341
tp342
bag2
(g3
(I0
tp343
g5
tp344
Rp345
(I1
(I1
tp346
g12
I00
S'\x96L*\xbe\x97\xa5\xcc?'
p347
tp348
bag2
(g3
(I0
tp349
g5
tp350
Rp351
(I1
(I1
tp352
g12
I00
S'\xf5\xcb\t\xc4\xff\xf1\xca?'
p353
tp354
bag2
(g3
(I0
tp355
g5
tp356
Rp357
(I1
(I1
tp358
g12
I00
S'\xf6O\x93\x0f0R\xc9?'
p359
tp360
bag2
(g3
(I0
tp361
g5
tp362
Rp363
(I1
(I1
tp364
g12
I00
S'`\xf3z\x90J\xca\xc7?'
p365
tp366
bag2
(g3
(I0
tp367
g5
tp368
Rp369
(I1
(I1
tp370
g12
I00
S'W<\xb0\xec\xc2^\xc6?'
p371
tp372
baa(lp373
g2
(g3
(I0
tp374
g5
tp375
Rp376
(I1
(I1
tp377
g12
I00
S':\x8a;\xeb\xa1P\xe0?'
p378
tp379
bag2
(g3
(I0
tp380
g5
tp381
Rp382
(I1
(I1
tp383
g12
I00
S'\xe0\xb5\x98#\x16\x19\xe0?'
p384
tp385
bag2
(g3
(I0
tp386
g5
tp387
Rp388
(I1
(I1
tp389
g12
I00
S"\xef\xc8\x89\x94'\xc2\xdf?"
p390
tp391
bag2
(g3
(I0
tp392
g5
tp393
Rp394
(I1
(I1
tp395
g12
I00
S'\xc3Q\xdb\x82\xc0Q\xdf?'
p396
tp397
bag2
(g3
(I0
tp398
g5
tp399
Rp400
(I1
(I1
tp401
g12
I00
S'\xe1\x08\xc1\x06\xa7\xe1\xde?'
p402
tp403
bag2
(g3
(I0
tp404
g5
tp405
Rp406
(I1
(I1
tp407
g12
I00
S'\xbd\xc7\x17\x8dyr\xde?'
p408
tp409
bag2
(g3
(I0
tp410
g5
tp411
Rp412
(I1
(I1
tp413
g12
I00
S'\xfc1\x95W\xff\x04\xde?'
p414
tp415
bag2
(g3
(I0
tp416
g5
tp417
Rp418
(I1
(I1
tp419
g12
I00
S'jF\xc9\xe3\xdc\x99\xdd?'
p420
tp421
bag2
(g3
(I0
tp422
g5
tp423
Rp424
(I1
(I1
tp425
g12
I00
S'\x14\xcb\xba\x98\xf31\xdd?'
p426
tp427
bag2
(g3
(I0
tp428
g5
tp429
Rp430
(I1
(I1
tp431
g12
I00
S'\xba\x8e=\xa6\x1b\xce\xdc?'
p432
tp433
bag2
(g3
(I0
tp434
g5
tp435
Rp436
(I1
(I1
tp437
g12
I00
S'\xdd\x803\x06\x1fo\xdc?'
p438
tp439
bag2
(g3
(I0
tp440
g5
tp441
Rp442
(I1
(I1
tp443
g12
I00
S'D\x87\xd9x\x0b\x16\xdc?'
p444
tp445
bag2
(g3
(I0
tp446
g5
tp447
Rp448
(I1
(I1
tp449
g12
I00
S'\x99\xc9\xf9\x8c\xcd\xc3\xdb?'
p450
tp451
bag2
(g3
(I0
tp452
g5
tp453
Rp454
(I1
(I1
tp455
g12
I00
S'\xb8\x93M\xeayy\xdb?'
p456
tp457
bag2
(g3
(I0
tp458
g5
tp459
Rp460
(I1
(I1
tp461
g12
I00
S'\xbb\xe3\xb2\xae)8\xdb?'
p462
tp463
bag2
(g3
(I0
tp464
g5
tp465
Rp466
(I1
(I1
tp467
g12
I00
S'\x05\t}\x9b\x14\x01\xdb?'
p468
tp469
bag2
(g3
(I0
tp470
g5
tp471
Rp472
(I1
(I1
tp473
g12
I00
S'\r=\xbb\xbe~\xd5\xda?'
p474
tp475
bag2
(g3
(I0
tp476
g5
tp477
Rp478
(I1
(I1
tp479
g12
I00
S'A\x12\x9e\r\xbd\xb6\xda?'
p480
tp481
bag2
(g3
(I0
tp482
g5
tp483
Rp484
(I1
(I1
tp485
g12
I00
S'\x95!\x8c1\x0b\xa6\xda?'
p486
tp487
bag2
(g3
(I0
tp488
g5
tp489
Rp490
(I1
(I1
tp491
g12
I00
S'\xca\x83\x8du\xe7\xa4\xda?'
p492
tp493
baa(lp494
g2
(g3
(I0
tp495
g5
tp496
Rp497
(I1
(I1
tp498
g12
I00
S'7\xd8\xe1\xa2kp\xe2?'
p499
tp500
bag2
(g3
(I0
tp501
g5
tp502
Rp503
(I1
(I1
tp504
g12
I00
S'\x9d\xb5?\x08\x1cl\xe2?'
p505
tp506
bag2
(g3
(I0
tp507
g5
tp508
Rp509
(I1
(I1
tp510
g12
I00
S'}Y\x8c&\x93i\xe2?'
p511
tp512
bag2
(g3
(I0
tp513
g5
tp514
Rp515
(I1
(I1
tp516
g12
I00
S'M\xdaz\xe0\x1ai\xe2?'
p517
tp518
bag2
(g3
(I0
tp519
g5
tp520
Rp521
(I1
(I1
tp522
g12
I00
S'\x86\x13\xceh\xf7j\xe2?'
p523
tp524
bag2
(g3
(I0
tp525
g5
tp526
Rp527
(I1
(I1
tp528
g12
I00
S'\r\x01\xba\x06\x83o\xe2?'
p529
tp530
bag2
(g3
(I0
tp531
g5
tp532
Rp533
(I1
(I1
tp534
g12
I00
S'W\xac\x832\xf6v\xe2?'
p535
tp536
bag2
(g3
(I0
tp537
g5
tp538
Rp539
(I1
(I1
tp540
g12
I00
S'T\xd7N\x8b\xbe\x81\xe2?'
p541
tp542
bag2
(g3
(I0
tp543
g5
tp544
Rp545
(I1
(I1
tp546
g12
I00
S'\x0cZ\xaad,\x90\xe2?'
p547
tp548
bag2
(g3
(I0
tp549
g5
tp550
Rp551
(I1
(I1
tp552
g12
I00
S'\xcd\xd5r\xc6\x9a\xa2\xe2?'
p553
tp554
bag2
(g3
(I0
tp555
g5
tp556
Rp557
(I1
(I1
tp558
g12
I00
S'4\xf2`Zk\xb9\xe2?'
p559
tp560
bag2
(g3
(I0
tp561
g5
tp562
Rp563
(I1
(I1
tp564
g12
I00
S'\x9f\xb3\x07\x80\xff\xd4\xe2?'
p565
tp566
bag2
(g3
(I0
tp567
g5
tp568
Rp569
(I1
(I1
tp570
g12
I00
S'\xa1\x0e\xe3\x96\xbc\xf5\xe2?'
p571
tp572
bag2
(g3
(I0
tp573
g5
tp574
Rp575
(I1
(I1
tp576
g12
I00
S'\xb5t\xf8\xac\x04\x1c\xe3?'
p577
tp578
bag2
(g3
(I0
tp579
g5
tp580
Rp581
(I1
(I1
tp582
g12
I00
S'\x9et|\x0e;H\xe3?'
p583
tp584
bag2
(g3
(I0
tp585
g5
tp586
Rp587
(I1
(I1
tp588
g12
I00
S'\x8b\x93\xb2h\xbbz\xe3?'
p589
tp590
bag2
(g3
(I0
tp591
g5
tp592
Rp593
(I1
(I1
tp594
g12
I00
S'wf\x1b\xd7\xe0\xb3\xe3?'
p595
tp596
bag2
(g3
(I0
tp597
g5
tp598
Rp599
(I1
(I1
tp600
g12
I00
S'P\xfa\xfaW\xfa\xf3\xe3?'
p601
tp602
bag2
(g3
(I0
tp603
g5
tp604
Rp605
(I1
(I1
tp606
g12
I00
S'-\x01~vY;\xe4?'
p607
tp608
bag2
(g3
(I0
tp609
g5
tp610
Rp611
(I1
(I1
tp612
g12
I00
S'\xe6{\xbf\x0b:\x8a\xe4?'
p613
tp614
baa(lp615
g2
(g3
(I0
tp616
g5
tp617
Rp618
(I1
(I1
tp619
g12
I00
S'\x0b\xe2\xb7\xc1\xa0q\xe4?'
p620
tp621
bag2
(g3
(I0
tp622
g5
tp623
Rp624
(I1
(I1
tp625
g12
I00
S'l\x97\xf4\x0b&\x9d\xe4?'
p626
tp627
bag2
(g3
(I0
tp628
g5
tp629
Rp630
(I1
(I1
tp631
g12
I00
S'g\xb5\xb3\xaam\xcc\xe4?'
p632
tp633
bag2
(g3
(I0
tp634
g5
tp635
Rp636
(I1
(I1
tp637
g12
I00
S'\xc2\\\xe9U\xbc\xff\xe4?'
p638
tp639
bag2
(g3
(I0
tp640
g5
tp641
Rp642
(I1
(I1
tp643
g12
I00
S'\x15O\x14\xa2P7\xe5?'
p644
tp645
bag2
(g3
(I0
tp646
g5
tp647
Rp648
(I1
(I1
tp649
g12
I00
S'\xed\xf4zyis\xe5?'
p650
tp651
bag2
(g3
(I0
tp652
g5
tp653
Rp654
(I1
(I1
tp655
g12
I00
S'\xc1\x89\xc1\xa6J\xb4\xe5?'
p656
tp657
bag2
(g3
(I0
tp658
g5
tp659
Rp660
(I1
(I1
tp661
g12
I00
S'<\xe5\r\xb11\xfa\xe5?'
p662
tp663
bag2
(g3
(I0
tp664
g5
tp665
Rp666
(I1
(I1
tp667
g12
I00
S'\x17q\x82\xe8aE\xe6?'
p668
tp669
bag2
(g3
(I0
tp670
g5
tp671
Rp672
(I1
(I1
tp673
g12
I00
S'R"\x810\x12\x96\xe6?'
p674
tp675
bag2
(g3
(I0
tp676
g5
tp677
Rp678
(I1
(I1
tp679
g12
I00
S'\x16\t\x9a\xdf}\xec\xe6?'
p680
tp681
bag2
(g3
(I0
tp682
g5
tp683
Rp684
(I1
(I1
tp685
g12
I00
S'\x1adY\xdc\xd2H\xe7?'
p686
tp687
bag2
(g3
(I0
tp688
g5
tp689
Rp690
(I1
(I1
tp691
g12
I00
S'\rQ9\x7f;\xab\xe7?'
p692
tp693
bag2
(g3
(I0
tp694
g5
tp695
Rp696
(I1
(I1
tp697
g12
I00
S'\xe4\xbdP\xf6\xdc\x13\xe8?'
p698
tp699
bag2
(g3
(I0
tp700
g5
tp701
Rp702
(I1
(I1
tp703
g12
I00
S'\x9f\x1e\xca\xd6\xd1\x82\xe8?'
p704
tp705
bag2
(g3
(I0
tp706
g5
tp707
Rp708
(I1
(I1
tp709
g12
I00
S'-A\x8e\xb12\xf8\xe8?'
p710
tp711
bag2
(g3
(I0
tp712
g5
tp713
Rp714
(I1
(I1
tp715
g12
I00
S'\x93\xc3\x9d2\x14t\xe9?'
p716
tp717
bag2
(g3
(I0
tp718
g5
tp719
Rp720
(I1
(I1
tp721
g12
I00
S'\xcc~\xc5q\x8c\xf6\xe9?'
p722
tp723
bag2
(g3
(I0
tp724
g5
tp725
Rp726
(I1
(I1
tp727
g12
I00
S"6'\x04\x13\xbc\x7f\xea?"
p728
tp729
bag2
(g3
(I0
tp730
g5
tp731
Rp732
(I1
(I1
tp733
g12
I00
S'\x18\x9e&\xe9\xdd\x0f\xeb?'
p734
tp735
baa(lp736
g2
(g3
(I0
tp737
g5
tp738
Rp739
(I1
(I1
tp740
g12
I00
S'"\xf9t$\x1fP\xe6?'
p741
tp742
bag2
(g3
(I0
tp743
g5
tp744
Rp745
(I1
(I1
tp746
g12
I00
S'$\xeb\xcf\xfa\xa6\xa7\xe6?'
p747
tp748
bag2
(g3
(I0
tp749
g5
tp750
Rp751
(I1
(I1
tp752
g12
I00
S"\xea'8\xa9\xb0\x04\xe7?"
p753
tp754
bag2
(g3
(I0
tp755
g5
tp756
Rp757
(I1
(I1
tp758
g12
I00
S'\x18\x8f\xee\xb6Wg\xe7?'
p759
tp760
bag2
(g3
(I0
tp761
g5
tp762
Rp763
(I1
(I1
tp764
g12
I00
S'z]\x15a\xd1\xcf\xe7?'
p765
tp766
bag2
(g3
(I0
tp767
g5
tp768
Rp769
(I1
(I1
tp770
g12
I00
S'`t\xba\x1c6>\xe8?'
p771
tp772
bag2
(g3
(I0
tp773
g5
tp774
Rp775
(I1
(I1
tp776
g12
I00
S'C\xc3\xb5\xe1\xa3\xb2\xe8?'
p777
tp778
bag2
(g3
(I0
tp779
g5
tp780
Rp781
(I1
(I1
tp782
g12
I00
S'\xe7}\xe5\x1d3-\xe9?'
p783
tp784
bag2
(g3
(I0
tp785
g5
tp786
Rp787
(I1
(I1
tp788
g12
I00
S'F\xe2\r\x00\xeb\xad\xe9?'
p789
tp790
bag2
(g3
(I0
tp791
g5
tp792
Rp793
(I1
(I1
tp794
g12
I00
S'\xac\xfa\xfb\x83\xd54\xea?'
p795
tp796
bag2
(g3
(I0
tp797
g5
tp798
Rp799
(I1
(I1
tp800
g12
I00
S'\x07\x83\x8f\x96\xf2\xc1\xea?'
p801
tp802
bag2
(g3
(I0
tp803
g5
tp804
Rp805
(I1
(I1
tp806
g12
I00
S'd\xba\xf8I<U\xeb?'
p807
tp808
bag2
(g3
(I0
tp809
g5
tp810
Rp811
(I1
(I1
tp812
g12
I00
S'\x11\xc2\x03\xdd\xac\xee\xeb?'
p813
tp814
bag2
(g3
(I0
tp815
g5
tp816
Rp817
(I1
(I1
tp818
g12
I00
S'\x9c\x00\x8d\x93:\x8e\xec?'
p819
tp820
bag2
(g3
(I0
tp821
g5
tp822
Rp823
(I1
(I1
tp824
g12
I00
S'\xd1\xe9{\xb8\xe23\xed?'
p825
tp826
bag2
(g3
(I0
tp827
g5
tp828
Rp829
(I1
(I1
tp830
g12
I00
S'\x04\x12\xda:\xc1\xdf\xed?'
p831
tp832
bag2
(g3
(I0
tp833
g5
tp834
Rp835
(I1
(I1
tp836
g12
I00
S'\xce\x18\xbcs\x14\x92\xee?'
p837
tp838
bag2
(g3
(I0
tp839
g5
tp840
Rp841
(I1
(I1
tp842
g12
I00
S'\x0c\x9d>7\x9bK\xef?'
p843
tp844
bag2
(g3
(I0
tp845
g5
tp846
Rp847
(I1
(I1
tp848
g12
I00
S'\xc6\x1c\xd3\xd6\xc4\x06\xf0?'
p849
tp850
bag2
(g3
(I0
tp851
g5
tp852
Rp853
(I1
(I1
tp854
g12
I00
S'\xab\xd6\xae\xa2bl\xf0?'
p855
tp856
baa(lp857
g2
(g3
(I0
tp858
g5
tp859
Rp860
(I1
(I1
tp861
g12
I00
S'k\xa3\xb0\xd1\xd2\t\xe8?'
p862
tp863
bag2
(g3
(I0
tp864
g5
tp865
Rp866
(I1
(I1
tp867
g12
I00
S'7f\x84\x8eA\x89\xe8?'
p868
tp869
bag2
(g3
(I0
tp870
g5
tp871
Rp872
(I1
(I1
tp873
g12
I00
S'>\x8c\xd3!s\x0f\xe9?'
p874
tp875
bag2
(g3
(I0
tp876
g5
tp877
Rp878
(I1
(I1
tp879
g12
I00
S'\xea\xa9\xd6\x94f\x9c\xe9?'
p880
tp881
bag2
(g3
(I0
tp882
g5
tp883
Rp884
(I1
(I1
tp885
g12
I00
S'\x0em`\xc1\x1c0\xea?'
p886
tp887
bag2
(g3
(I0
tp888
g5
tp889
Rp890
(I1
(I1
tp891
g12
I00
S'\x15\xa1_\xef\x85\xca\xea?'
p892
tp893
bag2
(g3
(I0
tp894
g5
tp895
Rp896
(I1
(I1
tp897
g12
I00
S'h\xd0\x83\xf4\x88k\xeb?'
p898
tp899
bag2
(g3
(I0
tp900
g5
tp901
Rp902
(I1
(I1
tp903
g12
I00
S'.\xd3\x1a\xed\x10\x13\xec?'
p904
tp905
bag2
(g3
(I0
tp906
g5
tp907
Rp908
(I1
(I1
tp909
g12
I00
S'\x919J\xfd\xfc\xc0\xec?'
p910
tp911
bag2
(g3
(I0
tp912
g5
tp913
Rp914
(I1
(I1
tp915
g12
I00
S'2Z\x95\x1d/u\xed?'
p916
tp917
bag2
(g3
(I0
tp918
g5
tp919
Rp920
(I1
(I1
tp921
g12
I00
S'l\xf4\xc6+\x86/\xee?'
p922
tp923
bag2
(g3
(I0
tp924
g5
tp925
Rp926
(I1
(I1
tp927
g12
I00
S'\xc9\xea\x9e\x85\xf3\xef\xee?'
p928
tp929
bag2
(g3
(I0
tp930
g5
tp931
Rp932
(I1
(I1
tp933
g12
I00
S'W\xa7\xac\xe3\x82\xb6\xef?'
p934
tp935
bag2
(g3
(I0
tp936
g5
tp937
Rp938
(I1
(I1
tp939
g12
I00
S'\x86\xf9\xe4\r\xc6A\xf0?'
p940
tp941
bag2
(g3
(I0
tp942
g5
tp943
Rp944
(I1
(I1
tp945
g12
I00
S'Q9\xad\x88\xe7\xab\xf0?'
p946
tp947
bag2
(g3
(I0
tp948
g5
tp949
Rp950
(I1
(I1
tp951
g12
I00
S'\xd6e\xf3\xcfD\x1a\xf1?'
p952
tp953
bag2
(g3
(I0
tp954
g5
tp955
Rp956
(I1
(I1
tp957
g12
I00
S'T\xa8?\xca\x16\x8d\xf1?'
p958
tp959
bag2
(g3
(I0
tp960
g5
tp961
Rp962
(I1
(I1
tp963
g12
I00
S'\xe1\xcf\xa3\x05E\x04\xf2?'
p964
tp965
bag2
(g3
(I0
tp966
g5
tp967
Rp968
(I1
(I1
tp969
g12
I00
S'\xd7\xf7\x12\x8a\xb1\x7f\xf2?'
p970
tp971
bag2
(g3
(I0
tp972
g5
tp973
Rp974
(I1
(I1
tp975
g12
I00
S"'\x17X\x1f4\xff\xf2?"
p976
tp977
baa(lp978
g2
(g3
(I0
tp979
g5
tp980
Rp981
(I1
(I1
tp982
g12
I00
S'/\x04M\xff\xe1\x9d\xe9?'
p983
tp984
bag2
(g3
(I0
tp985
g5
tp986
Rp987
(I1
(I1
tp988
g12
I00
S'\x0e\x99\x8b\x16\xbd@\xea?'
p989
tp990
bag2
(g3
(I0
tp991
g5
tp992
Rp993
(I1
(I1
tp994
g12
I00
S'\x86\x8e6s\x13\xeb\xea?'
p995
tp996
bag2
(g3
(I0
tp997
g5
tp998
Rp999
(I1
(I1
tp1000
g12
I00
S'$\xd2p\x04\xcd\x9c\xeb?'
p1001
tp1002
bag2
(g3
(I0
tp1003
g5
tp1004
Rp1005
(I1
(I1
tp1006
g12
I00
S'1q\x05\x07\xafU\xec?'
p1007
tp1008
bag2
(g3
(I0
tp1009
g5
tp1010
Rp1011
(I1
(I1
tp1012
g12
I00
S'\xb7\xd6g\xfd\x83\x15\xed?'
p1013
tp1014
bag2
(g3
(I0
tp1015
g5
tp1016
Rp1017
(I1
(I1
tp1018
g12
I00
S'r\x0f\xb5M\x16\xdc\xed?'
p1019
tp1020
bag2
(g3
(I0
tp1021
g5
tp1022
Rp1023
(I1
(I1
tp1024
g12
I00
S'c,\xd9\xc2,\xa9\xee?'
p1025
tp1026
bag2
(g3
(I0
tp1027
g5
tp1028
Rp1029
(I1
(I1
tp1030
g12
I00
S'\xc5\x96\xbf\xcc\x9c|\xef?'
p1031
tp1032
bag2
(g3
(I0
tp1033
g5
tp1034
Rp1035
(I1
(I1
tp1036
g12
I00
S'\xfb\xb4\xf9\x00,+\xf0?'
p1037
tp1038
bag2
(g3
(I0
tp1039
g5
tp1040
Rp1041
(I1
(I1
tp1042
g12
I00
S'\xed\x98\xd6vI\x9b\xf0?'
p1043
tp1044
bag2
(g3
(I0
tp1045
g5
tp1046
Rp1047
(I1
(I1
tp1048
g12
I00
S'\xe6t\x88\x82\xfe\x0e\xf1?'
p1049
tp1050
bag2
(g3
(I0
tp1051
g5
tp1052
Rp1053
(I1
(I1
tp1054
g12
I00
S'4k\xb03\xd8\x86\xf1?'
p1055
tp1056
bag2
(g3
(I0
tp1057
g5
tp1058
Rp1059
(I1
(I1
tp1060
g12
I00
S'73\xf6\xd30\x03\xf2?'
p1061
tp1062
bag2
(g3
(I0
tp1063
g5
tp1064
Rp1065
(I1
(I1
tp1066
g12
I00
S'=\x87\x8b\xd8\xf8\x83\xf2?'
p1067
tp1068
bag2
(g3
(I0
tp1069
g5
tp1070
Rp1071
(I1
(I1
tp1072
g12
I00
S'\x02\x81\xe8\xd0\xf7\x08\xf3?'
p1073
tp1074
bag2
(g3
(I0
tp1075
g5
tp1076
Rp1077
(I1
(I1
tp1078
g12
I00
S'\x82\x8a\xd18\x04\x92\xf3?'
p1079
tp1080
bag2
(g3
(I0
tp1081
g5
tp1082
Rp1083
(I1
(I1
tp1084
g12
I00
S'\x0f\x18\xef\xe2\x03\x1f\xf4?'
p1085
tp1086
bag2
(g3
(I0
tp1087
g5
tp1088
Rp1089
(I1
(I1
tp1090
g12
I00
S'\x1b\xcdC@\xdd\xaf\xf4?'
p1091
tp1092
bag2
(g3
(I0
tp1093
g5
tp1094
Rp1095
(I1
(I1
tp1096
g12
I00
S'\x05\xbc\xcab\x88D\xf5?'
p1097
tp1098
baa(lp1099
g2
(g3
(I0
tp1100
g5
tp1101
Rp1102
(I1
(I1
tp1103
g12
I00
S'\x14Ja\xe5x\x0c\xeb?'
p1104
tp1105
bag2
(g3
(I0
tp1106
g5
tp1107
Rp1108
(I1
(I1
tp1109
g12
I00
S'[\x9c\xa4\xd2(\xce\xeb?'
p1110
tp1111
bag2
(g3
(I0
tp1112
g5
tp1113
Rp1114
(I1
(I1
tp1115
g12
I00
S'@\x10(\x87\xb7\x97\xec?'
p1116
tp1117
bag2
(g3
(I0
tp1118
g5
tp1119
Rp1120
(I1
(I1
tp1121
g12
I00
S'\xeaT\xe9>\xdah\xed?'
p1122
tp1123
bag2
(g3
(I0
tp1124
g5
tp1125
Rp1126
(I1
(I1
tp1127
g12
I00
S'\x93kZ\n;A\xee?'
p1128
tp1129
bag2
(g3
(I0
tp1130
g5
tp1131
Rp1132
(I1
(I1
tp1133
g12
I00
S'\xbc\x8c`\xcd\x8e \xef?'
p1134
tp1135
bag2
(g3
(I0
tp1136
g5
tp1137
Rp1138
(I1
(I1
tp1139
g12
I00
S'\xaeMM!L\x03\xf0?'
p1140
tp1141
bag2
(g3
(I0
tp1142
g5
tp1143
Rp1144
(I1
(I1
tp1145
g12
I00
S'\x07f#\xb1\x9fy\xf0?'
p1146
tp1147
bag2
(g3
(I0
tp1148
g5
tp1149
Rp1150
(I1
(I1
tp1151
g12
I00
S'bX\xa2be\xf3\xf0?'
p1152
tp1153
bag2
(g3
(I0
tp1154
g5
tp1155
Rp1156
(I1
(I1
tp1157
g12
I00
S'z\xf8^\n\nq\xf1?'
p1158
tp1159
bag2
(g3
(I0
tp1160
g5
tp1161
Rp1162
(I1
(I1
tp1163
g12
I00
S'\xc2u/u$\xf3\xf1?'
p1164
tp1165
bag2
(g3
(I0
tp1166
g5
tp1167
Rp1168
(I1
(I1
tp1169
g12
I00
S'\xbe{\x0e\x8f\xefy\xf2?'
p1170
tp1171
bag2
(g3
(I0
tp1172
g5
tp1173
Rp1174
(I1
(I1
tp1175
g12
I00
S';\xc1+\xf4=\x05\xf3?'
p1176
tp1177
bag2
(g3
(I0
tp1178
g5
tp1179
Rp1180
(I1
(I1
tp1181
g12
I00
S'\x8d\xa6\xc9\x15\xce\x94\xf3?'
p1182
tp1183
bag2
(g3
(I0
tp1184
g5
tp1185
Rp1186
(I1
(I1
tp1187
g12
I00
S'\xa1\xe1\x141l(\xf4?'
p1188
tp1189
bag2
(g3
(I0
tp1190
g5
tp1191
Rp1192
(I1
(I1
tp1193
g12
I00
S'\x98\x06\xbc\n\xfe\xbf\xf4?'
p1194
tp1195
bag2
(g3
(I0
tp1196
g5
tp1197
Rp1198
(I1
(I1
tp1199
g12
I00
S'\x8b\x89\xc5Om[\xf5?'
p1200
tp1201
bag2
(g3
(I0
tp1202
g5
tp1203
Rp1204
(I1
(I1
tp1205
g12
I00
S'_\x0f\x94\x1c\x8e\xfa\xf5?'
p1206
tp1207
bag2
(g3
(I0
tp1208
g5
tp1209
Rp1210
(I1
(I1
tp1211
g12
I00
S'\x11+\xb3\xebY\x9d\xf6?'
p1212
tp1213
bag2
(g3
(I0
tp1214
g5
tp1215
Rp1216
(I1
(I1
tp1217
g12
I00
S'\xcb\x89\x13\x9d\xb1C\xf7?'
p1218
tp1219
baa(lp1220
g2
(g3
(I0
tp1221
g5
tp1222
Rp1223
(I1
(I1
tp1224
g12
I00
S'\xe7\x87\x8d\xe3\xf0V\xec?'
p1225
tp1226
bag2
(g3
(I0
tp1227
g5
tp1228
Rp1229
(I1
(I1
tp1230
g12
I00
S'\xd5\xba;x73\xed?'
p1231
tp1232
bag2
(g3
(I0
tp1233
g5
tp1234
Rp1235
(I1
(I1
tp1236
g12
I00
S'\x80 \x8fdy\x17\xee?'
p1237
tp1238
bag2
(g3
(I0
tp1239
g5
tp1240
Rp1241
(I1
(I1
tp1242
g12
I00
S'6\xe4\xaf\xbcN\x03\xef?'
p1243
tp1244
bag2
(g3
(I0
tp1245
g5
tp1246
Rp1247
(I1
(I1
tp1248
g12
I00
S'\xf7\xc2\xd8\\Y\xf6\xef?'
p1249
tp1250
bag2
(g3
(I0
tp1251
g5
tp1252
Rp1253
(I1
(I1
tp1254
g12
I00
S'\x9d\xc7\xe0\x8f2x\xf0?'
p1255
tp1256
bag2
(g3
(I0
tp1257
g5
tp1258
Rp1259
(I1
(I1
tp1260
g12
I00
S'3\xb3\xa5f\xc8\xf8\xf0?'
p1261
tp1262
bag2
(g3
(I0
tp1263
g5
tp1264
Rp1265
(I1
(I1
tp1266
g12
I00
S'\x8a\xe9b\xb5O}\xf1?'
p1267
tp1268
bag2
(g3
(I0
tp1269
g5
tp1270
Rp1271
(I1
(I1
tp1272
g12
I00
S'U\x03Y@n\x06\xf2?'
p1273
tp1274
bag2
(g3
(I0
tp1275
g5
tp1276
Rp1277
(I1
(I1
tp1278
g12
I00
S'\xb3{\xd0\xac\x7f\x94\xf2?'
p1279
tp1280
bag2
(g3
(I0
tp1281
g5
tp1282
Rp1283
(I1
(I1
tp1284
g12
I00
S"\xc6\x8c*\xb9Q'\xf3?"
p1285
tp1286
bag2
(g3
(I0
tp1287
g5
tp1288
Rp1289
(I1
(I1
tp1290
g12
I00
S'\xe6\x1c]@\x91\xbe\xf3?'
p1291
tp1292
bag2
(g3
(I0
tp1293
g5
tp1294
Rp1295
(I1
(I1
tp1296
g12
I00
S'NB\xd0\x88\x08Z\xf4?'
p1297
tp1298
bag2
(g3
(I0
tp1299
g5
tp1300
Rp1301
(I1
(I1
tp1302
g12
I00
S'&h8\xc3\x8d\xf9\xf4?'
p1303
tp1304
bag2
(g3
(I0
tp1305
g5
tp1306
Rp1307
(I1
(I1
tp1308
g12
I00
S'\xe0E{B\x01\x9d\xf5?'
p1309
tp1310
bag2
(g3
(I0
tp1311
g5
tp1312
Rp1313
(I1
(I1
tp1314
g12
I00
S'\xfd\r\xecSBD\xf6?'
p1315
tp1316
bag2
(g3
(I0
tp1317
g5
tp1318
Rp1319
(I1
(I1
tp1320
g12
I00
S'e E\r0\xef\xf6?'
p1321
tp1322
bag2
(g3
(I0
tp1323
g5
tp1324
Rp1325
(I1
(I1
tp1326
g12
I00
S'@\x8e\x02\x94\xad\x9d\xf7?'
p1327
tp1328
bag2
(g3
(I0
tp1329
g5
tp1330
Rp1331
(I1
(I1
tp1332
g12
I00
S'\xb1\xa3"\x93\xa8O\xf8?'
p1333
tp1334
bag2
(g3
(I0
tp1335
g5
tp1336
Rp1337
(I1
(I1
tp1338
g12
I00
S'\xe4o\x0e1\x00\x05\xf9?'
p1339
tp1340
baa(lp1341
g2
(g3
(I0
tp1342
g5
tp1343
Rp1344
(I1
(I1
tp1345
g12
I00
S'\xb7\xab\xe4\x9f\x98\x7f\xed?'
p1346
tp1347
bag2
(g3
(I0
tp1348
g5
tp1349
Rp1350
(I1
(I1
tp1351
g12
I00
S'G+\x07"\xbcr\xee?'
p1352
tp1353
bag2
(g3
(I0
tp1354
g5
tp1355
Rp1356
(I1
(I1
tp1357
g12
I00
S';\xadp\xd3\xd2m\xef?'
p1358
tp1359
bag2
(g3
(I0
tp1360
g5
tp1361
Rp1362
(I1
(I1
tp1363
g12
I00
S'Jt\xf7_:8\xf0?'
p1364
tp1365
bag2
(g3
(I0
tp1366
g5
tp1367
Rp1368
(I1
(I1
tp1369
g12
I00
S"'\x01{\xda9\xbd\xf0?"
p1370
tp1371
bag2
(g3
(I0
tp1372
g5
tp1373
Rp1374
(I1
(I1
tp1375
g12
I00
S'\x12\x12:n\x15F\xf1?'
p1376
tp1377
bag2
(g3
(I0
tp1378
g5
tp1379
Rp1380
(I1
(I1
tp1381
g12
I00
S'SD\xfedc\xd3\xf1?'
p1382
tp1383
bag2
(g3
(I0
tp1384
g5
tp1385
Rp1386
(I1
(I1
tp1387
g12
I00
S'\xcf\xba\x96S\xcce\xf2?'
p1388
tp1389
bag2
(g3
(I0
tp1390
g5
tp1391
Rp1392
(I1
(I1
tp1393
g12
I00
S'V{\x1e\xd3]\xfd\xf2?'
p1394
tp1395
bag2
(g3
(I0
tp1396
g5
tp1397
Rp1398
(I1
(I1
tp1399
g12
I00
S'\xf7H*+\xb6\x99\xf3?'
p1400
tp1401
bag2
(g3
(I0
tp1402
g5
tp1403
Rp1404
(I1
(I1
tp1405
g12
I00
S'\x17\xc3k\x00\x87:\xf4?'
p1406
tp1407
bag2
(g3
(I0
tp1408
g5
tp1409
Rp1410
(I1
(I1
tp1411
g12
I00
S'\x06\xf8\xabx\x9a\xdf\xf4?'
p1412
tp1413
bag2
(g3
(I0
tp1414
g5
tp1415
Rp1416
(I1
(I1
tp1417
g12
I00
S';\xd9\\\xcf\xca\x88\xf5?'
p1418
tp1419
bag2
(g3
(I0
tp1420
g5
tp1421
Rp1422
(I1
(I1
tp1423
g12
I00
S'ek\xb1\xff\xf05\xf6?'
p1424
tp1425
bag2
(g3
(I0
tp1426
g5
tp1427
Rp1428
(I1
(I1
tp1429
g12
I00
S'\xb4\x174\x87\xe1\xe6\xf6?'
p1430
tp1431
bag2
(g3
(I0
tp1432
g5
tp1433
Rp1434
(I1
(I1
tp1435
g12
I00
S'\x9b\xd7\xdb\xab\x84\x9b\xf7?'
p1436
tp1437
bag2
(g3
(I0
tp1438
g5
tp1439
Rp1440
(I1
(I1
tp1441
g12
I00
S'\xca\xd9\x02\xee\xb2S\xf8?'
p1442
tp1443
bag2
(g3
(I0
tp1444
g5
tp1445
Rp1446
(I1
(I1
tp1447
g12
I00
S']gC\xdeO\x0f\xf9?'
p1448
tp1449
bag2
(g3
(I0
tp1450
g5
tp1451
Rp1452
(I1
(I1
tp1453
g12
I00
S'vTG=+\xce\xf9?'
p1454
tp1455
bag2
(g3
(I0
tp1456
g5
tp1457
Rp1458
(I1
(I1
tp1459
g12
I00
S',\xfc\xb1\xc9+\x90\xfa?'
p1460
tp1461
baa(lp1462
g2
(g3
(I0
tp1463
g5
tp1464
Rp1465
(I1
(I1
tp1466
g12
I00
S'\x80y\x0eMQ\x89\xee?'
p1467
tp1468
bag2
(g3
(I0
tp1469
g5
tp1470
Rp1471
(I1
(I1
tp1472
g12
I00
S'\xb1`aP(\x90\xef?'
p1473
tp1474
bag2
(g3
(I0
tp1475
g5
tp1476
Rp1477
(I1
(I1
tp1478
g12
I00
S'\xe8\xe8}\x82sO\xf0?'
p1479
tp1480
bag2
(g3
(I0
tp1481
g5
tp1482
Rp1483
(I1
(I1
tp1484
g12
I00
S'H9B\x9f\xb1\xda\xf0?'
p1485
tp1486
bag2
(g3
(I0
tp1487
g5
tp1488
Rp1489
(I1
(I1
tp1490
g12
I00
S'\x1c\xcc~\x85\nj\xf1?'
p1491
tp1492
bag2
(g3
(I0
tp1493
g5
tp1494
Rp1495
(I1
(I1
tp1496
g12
I00
S'\xae>\xf8\xab3\xfe\xf1?'
p1497
tp1498
bag2
(g3
(I0
tp1499
g5
tp1500
Rp1501
(I1
(I1
tp1502
g12
I00
S't\x07\xbd\xd5\xd1\x97\xf2?'
p1503
tp1504
bag2
(g3
(I0
tp1505
g5
tp1506
Rp1507
(I1
(I1
tp1508
g12
I00
S'\xaf\xe0\xc6\xb6\xc66\xf3?'
p1509
tp1510
bag2
(g3
(I0
tp1511
g5
tp1512
Rp1513
(I1
(I1
tp1514
g12
I00
S'\xc4?\xd1\x8a\x9d\xda\xf3?'
p1515
tp1516
bag2
(g3
(I0
tp1517
g5
tp1518
Rp1519
(I1
(I1
tp1520
g12
I00
S'\xfe\xa1T\xa6\x02\x83\xf4?'
p1521
tp1522
bag2
(g3
(I0
tp1523
g5
tp1524
Rp1525
(I1
(I1
tp1526
g12
I00
S't\x8e\xcf\x17\xca/\xf5?'
p1527
tp1528
bag2
(g3
(I0
tp1529
g5
tp1530
Rp1531
(I1
(I1
tp1532
g12
I00
S'd\x81xk\xbe\xe0\xf5?'
p1533
tp1534
bag2
(g3
(I0
tp1535
g5
tp1536
Rp1537
(I1
(I1
tp1538
g12
I00
S')\x7f\x8f@\xc4\x95\xf6?'
p1539
tp1540
bag2
(g3
(I0
tp1541
g5
tp1542
Rp1543
(I1
(I1
tp1544
g12
I00
S'6-r\x8a\xa1N\xf7?'
p1545
tp1546
bag2
(g3
(I0
tp1547
g5
tp1548
Rp1549
(I1
(I1
tp1550
g12
I00
S'\xb4\x9fk 2\x0b\xf8?'
p1551
tp1552
bag2
(g3
(I0
tp1553
g5
tp1554
Rp1555
(I1
(I1
tp1556
g12
I00
S'\xaf]\x1f\x91S\xcb\xf8?'
p1557
tp1558
bag2
(g3
(I0
tp1559
g5
tp1560
Rp1561
(I1
(I1
tp1562
g12
I00
S'G|lu\xe5\x8e\xf9?'
p1563
tp1564
bag2
(g3
(I0
tp1565
g5
tp1566
Rp1567
(I1
(I1
tp1568
g12
I00
S"\xa9<5'\xb2U\xfa?"
p1569
tp1570
bag2
(g3
(I0
tp1571
g5
tp1572
Rp1573
(I1
(I1
tp1574
g12
I00
S'm\xbcJ\x85\x84\x1f\xfb?'
p1575
tp1576
bag2
(g3
(I0
tp1577
g5
tp1578
Rp1579
(I1
(I1
tp1580
g12
I00
S'\x19W\x8b`P\xec\xfb?'
p1581
tp1582
baa(lp1583
g2
(g3
(I0
tp1584
g5
tp1585
Rp1586
(I1
(I1
tp1587
g12
I00
S'\xc1\xff\x0b\x806w\xef?'
p1588
tp1589
bag2
(g3
(I0
tp1590
g5
tp1591
Rp1592
(I1
(I1
tp1593
g12
I00
S'\xa7F\x8f\xbc\x8eG\xf0?'
p1594
tp1595
bag2
(g3
(I0
tp1596
g5
tp1597
Rp1598
(I1
(I1
tp1599
g12
I00
S'$\xfcI\x80\x8b\xd7\xf0?'
p1600
tp1601
bag2
(g3
(I0
tp1602
g5
tp1603
Rp1604
(I1
(I1
tp1605
g12
I00
S'k\xd6E\x8d\xc9k\xf1?'
p1606
tp1607
bag2
(g3
(I0
tp1608
g5
tp1609
Rp1610
(I1
(I1
tp1611
g12
I00
S'a\xf0\xae;\t\x05\xf2?'
p1612
tp1613
bag2
(g3
(I0
tp1614
g5
tp1615
Rp1616
(I1
(I1
tp1617
g12
I00
S'\xac\x92GO\x03\xa4\xf2?'
p1618
tp1619
bag2
(g3
(I0
tp1620
g5
tp1621
Rp1622
(I1
(I1
tp1623
g12
I00
S'\x96\xcc\xfd\xf1\x91H\xf3?'
p1624
tp1625
bag2
(g3
(I0
tp1626
g5
tp1627
Rp1628
(I1
(I1
tp1629
g12
I00
S'\x87\x15l\xf4/\xf2\xf3?'
p1630
tp1631
bag2
(g3
(I0
tp1632
g5
tp1633
Rp1634
(I1
(I1
tp1635
g12
I00
S'\x91\x8eZ=\x84\xa0\xf4?'
p1636
tp1637
bag2
(g3
(I0
tp1638
g5
tp1639
Rp1640
(I1
(I1
tp1641
g12
I00
S'\x8aA\x8d XS\xf5?'
p1642
tp1643
bag2
(g3
(I0
tp1644
g5
tp1645
Rp1646
(I1
(I1
tp1647
g12
I00
S'\xe5(V\x8a}\n\xf6?'
p1648
tp1649
bag2
(g3
(I0
tp1650
g5
tp1651
Rp1652
(I1
(I1
tp1653
g12
I00
S'L\xf7>\xe8\xc9\xc5\xf6?'
p1654
tp1655
bag2
(g3
(I0
tp1656
g5
tp1657
Rp1658
(I1
(I1
tp1659
g12
I00
S'\x8e\xe4\x9c\x16\x07\x85\xf7?'
p1660
tp1661
bag2
(g3
(I0
tp1662
g5
tp1663
Rp1664
(I1
(I1
tp1665
g12
I00
S'\x05\xf1\xab\x8f\tH\xf8?'
p1666
tp1667
bag2
(g3
(I0
tp1668
g5
tp1669
Rp1670
(I1
(I1
tp1671
g12
I00
S'\x01?\xc3\r\xad\x0e\xf9?'
p1672
tp1673
bag2
(g3
(I0
tp1674
g5
tp1675
Rp1676
(I1
(I1
tp1677
g12
I00
S'\x97\x16[3\xc1\xd8\xf9?'
p1678
tp1679
bag2
(g3
(I0
tp1680
g5
tp1681
Rp1682
(I1
(I1
tp1683
g12
I00
S'.\xcd\xc8\x99\x19\xa6\xfa?'
p1684
tp1685
bag2
(g3
(I0
tp1686
g5
tp1687
Rp1688
(I1
(I1
tp1689
g12
I00
S'u3\xebp\x84v\xfb?'
p1690
tp1691
bag2
(g3
(I0
tp1692
g5
tp1693
Rp1694
(I1
(I1
tp1695
g12
I00
S'\xf1l=\x81\xc2I\xfc?'
p1696
tp1697
bag2
(g3
(I0
tp1698
g5
tp1699
Rp1700
(I1
(I1
tp1701
g12
I00
S'{\x05\x13\x1e\xbc\x1f\xfd?'
p1702
tp1703
baa(lp1704
g2
(g3
(I0
tp1705
g5
tp1706
Rp1707
(I1
(I1
tp1708
g12
I00
S'\xcc\xf0\xdcC(&\xf0?'
p1709
tp1710
bag2
(g3
(I0
tp1711
g5
tp1712
Rp1713
(I1
(I1
tp1714
g12
I00
S'\xf6En\xbe\x9a\xb9\xf0?'
p1715
tp1716
bag2
(g3
(I0
tp1717
g5
tp1718
Rp1719
(I1
(I1
tp1720
g12
I00
S'B\xb0i__Q\xf1?'
p1721
tp1722
bag2
(g3
(I0
tp1723
g5
tp1724
Rp1725
(I1
(I1
tp1726
g12
I00
S"'\xee\x18\x9f)\xee\xf1?"
p1727
tp1728
bag2
(g3
(I0
tp1729
g5
tp1730
Rp1731
(I1
(I1
tp1732
g12
I00
S'\x9cO\xcf\xf6\xdc\x90\xf2?'
p1733
tp1734
bag2
(g3
(I0
tp1735
g5
tp1736
Rp1737
(I1
(I1
tp1738
g12
I00
S'5\xd3{\xdcs9\xf3?'
p1739
tp1740
bag2
(g3
(I0
tp1741
g5
tp1742
Rp1743
(I1
(I1
tp1744
g12
I00
S'\xfb%Hb\\\xe7\xf3?'
p1745
tp1746
bag2
(g3
(I0
tp1747
g5
tp1748
Rp1749
(I1
(I1
tp1750
g12
I00
S'A\xcb%\xcd)\x9a\xf4?'
p1751
tp1752
bag2
(g3
(I0
tp1753
g5
tp1754
Rp1755
(I1
(I1
tp1756
g12
I00
S'\x00\x18~ \xa1Q\xf5?'
p1757
tp1758
bag2
(g3
(I0
tp1759
g5
tp1760
Rp1761
(I1
(I1
tp1762
g12
I00
S'\xcc\xe8`\x97\x91\r\xf6?'
p1763
tp1764
bag2
(g3
(I0
tp1765
g5
tp1766
Rp1767
(I1
(I1
tp1768
g12
I00
S'/\x91\xe27\xcb\xcd\xf6?'
p1769
tp1770
bag2
(g3
(I0
tp1771
g5
tp1772
Rp1773
(I1
(I1
tp1774
g12
I00
S'\xc5X\x91\x0b\x14\x92\xf7?'
p1775
tp1776
bag2
(g3
(I0
tp1777
g5
tp1778
Rp1779
(I1
(I1
tp1780
g12
I00
S'\\\x0cY1?Z\xf8?'
p1781
tp1782
bag2
(g3
(I0
tp1783
g5
tp1784
Rp1785
(I1
(I1
tp1786
g12
I00
S'D\xdc\x99\xd0\x14&\xf9?'
p1787
tp1788
bag2
(g3
(I0
tp1789
g5
tp1790
Rp1791
(I1
(I1
tp1792
g12
I00
S'L\x05\xf3cw\xf5\xf9?'
p1793
tp1794
bag2
(g3
(I0
tp1795
g5
tp1796
Rp1797
(I1
(I1
tp1798
g12
I00
S'\xd2\xb0\xba~-\xc8\xfa?'
p1799
tp1800
bag2
(g3
(I0
tp1801
g5
tp1802
Rp1803
(I1
(I1
tp1804
g12
I00
S'\xef\x00"p\xfc\x9d\xfb?'
p1805
tp1806
bag2
(g3
(I0
tp1807
g5
tp1808
Rp1809
(I1
(I1
tp1810
g12
I00
S'>\x89*\xa5\xa3v\xfc?'
p1811
tp1812
bag2
(g3
(I0
tp1813
g5
tp1814
Rp1815
(I1
(I1
tp1816
g12
I00
S'v\xe9\xd5\x1a\x14R\xfd?'
p1817
tp1818
bag2
(g3
(I0
tp1819
g5
tp1820
Rp1821
(I1
(I1
tp1822
g12
I00
S'\x13\xc6\xb3M\xe5/\xfe?'
p1823
tp1824
baa(lp1825
g2
(g3
(I0
tp1826
g5
tp1827
Rp1828
(I1
(I1
tp1829
g12
I00
S'm\xd6\x10\xe3\xbe\x85\xf0?'
p1830
tp1831
bag2
(g3
(I0
tp1832
g5
tp1833
Rp1834
(I1
(I1
tp1835
g12
I00
S'\x18\xc2h\xba\xeb\x1f\xf1?'
p1836
tp1837
bag2
(g3
(I0
tp1838
g5
tp1839
Rp1840
(I1
(I1
tp1841
g12
I00
S'\xac:\xc4h\xfa\xbe\xf1?'
p1842
tp1843
bag2
(g3
(I0
tp1844
g5
tp1845
Rp1846
(I1
(I1
tp1847
g12
I00
S'\\\x90\xc7\x1b\xf3c\xf2?'
p1848
tp1849
bag2
(g3
(I0
tp1850
g5
tp1851
Rp1852
(I1
(I1
tp1853
g12
I00
S'\xee\x94\xce\xa3)\x0f\xf3?'
p1854
tp1855
bag2
(g3
(I0
tp1856
g5
tp1857
Rp1858
(I1
(I1
tp1859
g12
I00
S'!\x8cY\xe0\x08\xc0\xf3?'
p1860
tp1861
bag2
(g3
(I0
tp1862
g5
tp1863
Rp1864
(I1
(I1
tp1865
g12
I00
S'\xae\r\x82\xff\x07v\xf4?'
p1866
tp1867
bag2
(g3
(I0
tp1868
g5
tp1869
Rp1870
(I1
(I1
tp1871
g12
I00
S'\xb6\xc1!\xe7\xe30\xf5?'
p1872
tp1873
bag2
(g3
(I0
tp1874
g5
tp1875
Rp1876
(I1
(I1
tp1877
g12
I00
S'\x0e\xe16\xc8d\xf0\xf5?'
p1878
tp1879
bag2
(g3
(I0
tp1880
g5
tp1881
Rp1882
(I1
(I1
tp1883
g12
I00
S'\xa6[{?U\xb4\xf6?'
p1884
tp1885
bag2
(g3
(I0
tp1886
g5
tp1887
Rp1888
(I1
(I1
tp1889
g12
I00
S'\xfc\x9e\x87\xc2||\xf7?'
p1890
tp1891
bag2
(g3
(I0
tp1892
g5
tp1893
Rp1894
(I1
(I1
tp1895
g12
I00
S'\x7f`\xd0\xd6\xa1H\xf8?'
p1896
tp1897
bag2
(g3
(I0
tp1898
g5
tp1899
Rp1900
(I1
(I1
tp1901
g12
I00
S'\x16v\xb1n\x9e\x18\xf9?'
p1902
tp1903
bag2
(g3
(I0
tp1904
g5
tp1905
Rp1906
(I1
(I1
tp1907
g12
I00
S'W\xc0\xc4\x8e3\xec\xf9?'
p1908
tp1909
bag2
(g3
(I0
tp1910
g5
tp1911
Rp1912
(I1
(I1
tp1913
g12
I00
S'c6\xbe\x99@\xc3\xfa?'
p1914
tp1915
bag2
(g3
(I0
tp1916
g5
tp1917
Rp1918
(I1
(I1
tp1919
g12
I00
S'l\x92-ux\x9d\xfb?'
p1920
tp1921
bag2
(g3
(I0
tp1922
g5
tp1923
Rp1924
(I1
(I1
tp1925
g12
I00
S'\xc2\xef\xa4\\\xa0z\xfc?'
p1926
tp1927
bag2
(g3
(I0
tp1928
g5
tp1929
Rp1930
(I1
(I1
tp1931
g12
I00
S'\x05xK\xc9\x80Z\xfd?'
p1932
tp1933
bag2
(g3
(I0
tp1934
g5
tp1935
Rp1936
(I1
(I1
tp1937
g12
I00
S'\x80,?\xc6\xe5<\xfe?'
p1938
tp1939
bag2
(g3
(I0
tp1940
g5
tp1941
Rp1942
(I1
(I1
tp1943
g12
I00
S'\xbb\xef6\x17\x96!\xff?'
p1944
tp1945
baa(lp1946
g2
(g3
(I0
tp1947
g5
tp1948
Rp1949
(I1
(I1
tp1950
g12
I00
S'\xb0W\xc3\x04\xb6\xdb\xf0?'
p1951
tp1952
bag2
(g3
(I0
tp1953
g5
tp1954
Rp1955
(I1
(I1
tp1956
g12
I00
S'\x83\x9fo\xa7\x11|\xf1?'
p1957
tp1958
bag2
(g3
(I0
tp1959
g5
tp1960
Rp1961
(I1
(I1
tp1962
g12
I00
S'\xfdt\xf0\xa5\x16"\xf2?'
p1963
tp1964
bag2
(g3
(I0
tp1965
g5
tp1966
Rp1967
(I1
(I1
tp1968
g12
I00
S'\xablV\xdf\x98\xce\xf2?'
p1969
tp1970
bag2
(g3
(I0
tp1971
g5
tp1972
Rp1973
(I1
(I1
tp1974
g12
I00
S'~\x832\x8d8\x81\xf3?'
p1975
tp1976
bag2
(g3
(I0
tp1977
g5
tp1978
Rp1979
(I1
(I1
tp1980
g12
I00
S't\xda\x19\x85J9\xf4?'
p1981
tp1982
bag2
(g3
(I0
tp1983
g5
tp1984
Rp1985
(I1
(I1
tp1986
g12
I00
S'e\x8ez\xdbk\xf6\xf4?'
p1987
tp1988
bag2
(g3
(I0
tp1989
g5
tp1990
Rp1991
(I1
(I1
tp1992
g12
I00
S'\xb3\x85\xc1\tc\xb8\xf5?'
p1993
tp1994
bag2
(g3
(I0
tp1995
g5
tp1996
Rp1997
(I1
(I1
tp1998
g12
I00
S'\xcd\x85\xff\x8d\xfb~\xf6?'
p1999
tp2000
bag2
(g3
(I0
tp2001
g5
tp2002
Rp2003
(I1
(I1
tp2004
g12
I00
S'P\xa2\xf9?\xf8I\xf7?'
p2005
tp2006
bag2
(g3
(I0
tp2007
g5
tp2008
Rp2009
(I1
(I1
tp2010
g12
I00
S'\xfc\x87\x9fG\x1e\x19\xf8?'
p2011
tp2012
bag2
(g3
(I0
tp2013
g5
tp2014
Rp2015
(I1
(I1
tp2016
g12
I00
S'\rM\x9b\xa6:\xec\xf8?'
p2017
tp2018
bag2
(g3
(I0
tp2019
g5
tp2020
Rp2021
(I1
(I1
tp2022
g12
I00
S';m\x97\xbc\x14\xc3\xf9?'
p2023
tp2024
bag2
(g3
(I0
tp2025
g5
tp2026
Rp2027
(I1
(I1
tp2028
g12
I00
S'\x17X\xb5R\x7f\x9d\xfa?'
p2029
tp2030
bag2
(g3
(I0
tp2031
g5
tp2032
Rp2033
(I1
(I1
tp2034
g12
I00
S'\xfc\x1c\x88\xcd6{\xfb?'
p2035
tp2036
bag2
(g3
(I0
tp2037
g5
tp2038
Rp2039
(I1
(I1
tp2040
g12
I00
S'\xb0\xae\x86V\xf8[\xfc?'
p2041
tp2042
bag2
(g3
(I0
tp2043
g5
tp2044
Rp2045
(I1
(I1
tp2046
g12
I00
S'R.\xeb8\x81?\xfd?'
p2047
tp2048
bag2
(g3
(I0
tp2049
g5
tp2050
Rp2051
(I1
(I1
tp2052
g12
I00
S'r\x7f\xd7\xbc\xb2%\xfe?'
p2053
tp2054
bag2
(g3
(I0
tp2055
g5
tp2056
Rp2057
(I1
(I1
tp2058
g12
I00
S'e\x96\xc2\xbb5\x0e\xff?'
p2059
tp2060
bag2
(g3
(I0
tp2061
g5
tp2062
Rp2063
(I1
(I1
tp2064
g12
I00
S'N\xc4\x96A\xe9\xf8\xff?'
p2065
tp2066
baa(lp2067
g2
(g3
(I0
tp2068
g5
tp2069
Rp2070
(I1
(I1
tp2071
g12
I00
S'xJ\x00v@)\xf1?'
p2072
tp2073
bag2
(g3
(I0
tp2074
g5
tp2075
Rp2076
(I1
(I1
tp2077
g12
I00
S'P+\x13\xc0m\xcf\xf1?'
p2078
tp2079
bag2
(g3
(I0
tp2080
g5
tp2081
Rp2082
(I1
(I1
tp2083
g12
I00
S'\xec\xf7p\xa4\x02|\xf2?'
p2084
tp2085
bag2
(g3
(I0
tp2086
g5
tp2087
Rp2088
(I1
(I1
tp2089
g12
I00
S'c8\xdf\x005/\xf3?'
p2090
tp2091
bag2
(g3
(I0
tp2092
g5
tp2093
Rp2094
(I1
(I1
tp2095
g12
I00
S"\xe9\xb8\xfb'J\xe8\xf3?"
p2096
tp2097
bag2
(g3
(I0
tp2098
g5
tp2099
Rp2100
(I1
(I1
tp2101
g12
I00
S'Q\xd0\xa7K\xb2\xa6\xf4?'
p2102
tp2103
bag2
(g3
(I0
tp2104
g5
tp2105
Rp2106
(I1
(I1
tp2107
g12
I00
S'\xa8\xc7\x16\xed&j\xf5?'
p2108
tp2109
bag2
(g3
(I0
tp2110
g5
tp2111
Rp2112
(I1
(I1
tp2113
g12
I00
S'\xa8t\x8b\xdbp2\xf6?'
p2114
tp2115
bag2
(g3
(I0
tp2116
g5
tp2117
Rp2118
(I1
(I1
tp2119
g12
I00
S'D\xb3\xdfBS\xff\xf6?'
p2120
tp2121
bag2
(g3
(I0
tp2122
g5
tp2123
Rp2124
(I1
(I1
tp2125
g12
I00
S'Q\xacb7\x8b\xd0\xf7?'
p2126
tp2127
bag2
(g3
(I0
tp2128
g5
tp2129
Rp2130
(I1
(I1
tp2131
g12
I00
S'\x8eF\xf3f\xe2\xa5\xf8?'
p2132
tp2133
bag2
(g3
(I0
tp2134
g5
tp2135
Rp2136
(I1
(I1
tp2137
g12
I00
S'\xcd\x1d\xf0\x07%\x7f\xf9?'
p2138
tp2139
bag2
(g3
(I0
tp2140
g5
tp2141
Rp2142
(I1
(I1
tp2143
g12
I00
S'\xc6f\x84U\x16\\\xfa?'
p2144
tp2145
bag2
(g3
(I0
tp2146
g5
tp2147
Rp2148
(I1
(I1
tp2149
g12
I00
S'\xce\x86\x86P\x88<\xfb?'
p2150
tp2151
bag2
(g3
(I0
tp2152
g5
tp2153
Rp2154
(I1
(I1
tp2155
g12
I00
S'\x009\x82K\x0b \xfc?'
p2156
tp2157
bag2
(g3
(I0
tp2158
g5
tp2159
Rp2160
(I1
(I1
tp2161
g12
I00
S'VhP\xd8\x90\x06\xfd?'
p2162
tp2163
bag2
(g3
(I0
tp2164
g5
tp2165
Rp2166
(I1
(I1
tp2167
g12
I00
S'\x06\x87s\xd9\xc8\xef\xfd?'
p2168
tp2169
bag2
(g3
(I0
tp2170
g5
tp2171
Rp2172
(I1
(I1
tp2173
g12
I00
S'\x88\xd4\x91Go\xdb\xfe?'
p2174
tp2175
bag2
(g3
(I0
tp2176
g5
tp2177
Rp2178
(I1
(I1
tp2179
g12
I00
S'\x13\xafM\xe3R\xc9\xff?'
p2180
tp2181
bag2
(g3
(I0
tp2182
g5
tp2183
Rp2184
(I1
(I1
tp2185
g12
I00
S'\x16q\xe3m\xa8\\\x00@'
p2186
tp2187
baa(lp2188
g2
(g3
(I0
tp2189
g5
tp2190
Rp2191
(I1
(I1
tp2192
g12
I00
S'\xca\x05\x1b\x93mo\xf1?'
p2193
tp2194
bag2
(g3
(I0
tp2195
g5
tp2196
Rp2197
(I1
(I1
tp2198
g12
I00
S'0\x817\xa5"\x1b\xf2?'
p2199
tp2200
bag2
(g3
(I0
tp2201
g5
tp2202
Rp2203
(I1
(I1
tp2204
g12
I00
S'\xde\xed\x1dx\xb8\xcd\xf2?'
p2205
tp2206
bag2
(g3
(I0
tp2207
g5
tp2208
Rp2209
(I1
(I1
tp2210
g12
I00
S'\xfe\xd5\x8e\x15\xc9\x86\xf3?'
p2211
tp2212
bag2
(g3
(I0
tp2213
g5
tp2214
Rp2215
(I1
(I1
tp2216
g12
I00
S'\x94\xa2\xaa\x90\x8eE\xf4?'
p2217
tp2218
bag2
(g3
(I0
tp2219
g5
tp2220
Rp2221
(I1
(I1
tp2222
g12
I00
S"\xc7'+\xda\x9a\t\xf5?"
p2223
tp2224
bag2
(g3
(I0
tp2225
g5
tp2226
Rp2227
(I1
(I1
tp2228
g12
I00
S'D\x84\xccG\xb3\xd2\xf5?'
p2229
tp2230
bag2
(g3
(I0
tp2231
g5
tp2232
Rp2233
(I1
(I1
tp2234
g12
I00
S'`?\x1c\xa3\x9f\xa0\xf6?'
p2235
tp2236
bag2
(g3
(I0
tp2237
g5
tp2238
Rp2239
(I1
(I1
tp2240
g12
I00
S"\xf1a\xdd'\x17s\xf7?"
p2241
tp2242
bag2
(g3
(I0
tp2243
g5
tp2244
Rp2245
(I1
(I1
tp2246
g12
I00
S'l\t\xd84\xdfI\xf8?'
p2247
tp2248
bag2
(g3
(I0
tp2249
g5
tp2250
Rp2251
(I1
(I1
tp2252
g12
I00
S'\xbe;\xc9\xd6\xb3$\xf9?'
p2253
tp2254
bag2
(g3
(I0
tp2255
g5
tp2256
Rp2257
(I1
(I1
tp2258
g12
I00
S'\xff?\xf0\xc1k\x03\xfa?'
p2259
tp2260
bag2
(g3
(I0
tp2261
g5
tp2262
Rp2263
(I1
(I1
tp2264
g12
I00
S'a\xdbpG\xc5\xe5\xfa?'
p2265
tp2266
bag2
(g3
(I0
tp2267
g5
tp2268
Rp2269
(I1
(I1
tp2270
g12
I00
S'3\xfa\x9cGu\xcb\xfb?'
p2271
tp2272
bag2
(g3
(I0
tp2273
g5
tp2274
Rp2275
(I1
(I1
tp2276
g12
I00
S'\x0f\x19\xc9#G\xb4\xfc?'
p2277
tp2278
bag2
(g3
(I0
tp2279
g5
tp2280
Rp2281
(I1
(I1
tp2282
g12
I00
S'\xfcF\xda\xa5\xd3\x9f\xfd?'
p2283
tp2284
bag2
(g3
(I0
tp2285
g5
tp2286
Rp2287
(I1
(I1
tp2288
g12
I00
S'dY\x172\xfb\x8d\xfe?'
p2289
tp2290
bag2
(g3
(I0
tp2291
g5
tp2292
Rp2293
(I1
(I1
tp2294
g12
I00
S':\xb1\xbbq}~\xff?'
p2295
tp2296
bag2
(g3
(I0
tp2297
g5
tp2298
Rp2299
(I1
(I1
tp2300
g12
I00
S'\xa1\x08\x8f\xc9\x8f8\x00@'
p2301
tp2302
bag2
(g3
(I0
tp2303
g5
tp2304
Rp2305
(I1
(I1
tp2306
g12
I00
S'%\xf9\x86\xb5\xea\xb2\x00@'
p2307
tp2308
baa(lp2309
g2
(g3
(I0
tp2310
g5
tp2311
Rp2312
(I1
(I1
tp2313
g12
I00
S'\x0e\x90\xa3\xd1+\xaf\xf1?'
p2314
tp2315
bag2
(g3
(I0
tp2316
g5
tp2317
Rp2318
(I1
(I1
tp2319
g12
I00
S'\n\x96\n?\x15`\xf2?'
p2320
tp2321
bag2
(g3
(I0
tp2322
g5
tp2323
Rp2324
(I1
(I1
tp2325
g12
I00
S'[5\x8a\xb6\n\x18\xf3?'
p2326
tp2327
bag2
(g3
(I0
tp2328
g5
tp2329
Rp2330
(I1
(I1
tp2331
g12
I00
S'Y\xcf\x81\xdcF\xd6\xf3?'
p2332
tp2333
bag2
(g3
(I0
tp2334
g5
tp2335
Rp2336
(I1
(I1
tp2337
g12
I00
S'\xa3~\x95p\x1c\x9a\xf4?'
p2338
tp2339
bag2
(g3
(I0
tp2340
g5
tp2341
Rp2342
(I1
(I1
tp2343
g12
I00
S"'\x06\t\xbd7c\xf5?"
p2344
tp2345
bag2
(g3
(I0
tp2346
g5
tp2347
Rp2348
(I1
(I1
tp2349
g12
I00
S'\xc0\xa4\xb8\xf9\\1\xf6?'
p2350
tp2351
bag2
(g3
(I0
tp2352
g5
tp2353
Rp2354
(I1
(I1
tp2355
g12
I00
S'\x98\xba\xc2\xabM\x04\xf7?'
p2356
tp2357
bag2
(g3
(I0
tp2358
g5
tp2359
Rp2360
(I1
(I1
tp2361
g12
I00
S'\xf6D\xf0\x8f\xc3\xdb\xf7?'
p2362
tp2363
bag2
(g3
(I0
tp2364
g5
tp2365
Rp2366
(I1
(I1
tp2367
g12
I00
S'\x1a=\xa7;z\xb7\xf8?'
p2368
tp2369
bag2
(g3
(I0
tp2370
g5
tp2371
Rp2372
(I1
(I1
tp2373
g12
I00
S"\xf0|\xd2'9\x97\xf9?"
p2374
tp2375
bag2
(g3
(I0
tp2376
g5
tp2377
Rp2378
(I1
(I1
tp2379
g12
I00
S'5\xdd\xce7\xd6z\xfa?'
p2380
tp2381
bag2
(g3
(I0
tp2382
g5
tp2383
Rp2384
(I1
(I1
tp2385
g12
I00
S'{\x87\x97,\xfaa\xfb?'
p2386
tp2387
bag2
(g3
(I0
tp2388
g5
tp2389
Rp2390
(I1
(I1
tp2391
g12
I00
S'\x983@\x0ffL\xfc?'
p2392
tp2393
bag2
(g3
(I0
tp2394
g5
tp2395
Rp2396
(I1
(I1
tp2397
g12
I00
S'\x10<^\x86\xbc9\xfd?'
p2398
tp2399
bag2
(g3
(I0
tp2400
g5
tp2401
Rp2402
(I1
(I1
tp2403
g12
I00
S'\xf6NH\xca\xdd)\xfe?'
p2404
tp2405
bag2
(g3
(I0
tp2406
g5
tp2407
Rp2408
(I1
(I1
tp2409
g12
I00
S'^e\x01\x12k\x1c\xff?'
p2410
tp2411
bag2
(g3
(I0
tp2412
g5
tp2413
Rp2414
(I1
(I1
tp2415
g12
I00
S'O\x1e\x9f"\x98\x08\x00@'
p2416
tp2417
bag2
(g3
(I0
tp2418
g5
tp2419
Rp2420
(I1
(I1
tp2421
g12
I00
S'/\xb7\xce\xf2\x05\x84\x00@'
p2422
tp2423
bag2
(g3
(I0
tp2424
g5
tp2425
Rp2426
(I1
(I1
tp2427
g12
I00
S'\xce\xf7\xee\xf0e\x00\x01@'
p2428
tp2429
baa.